MPASM 5.81                           LCD.ASM   11-21-2019  15:29:22         PAGE  1


LOC  OBJECT CODE     LINE SOURCE TEXT
  VALUE

                      00001 #include p18f87k22.inc
                      00001         LIST
                      00002 
                      00003 ;==========================================================================
                      00004 ; Build date : Jul 23 2018
                      00005 ;  MPASM PIC18F87K22 processor include
                      00006 ; 
                      00007 ;  (c) Copyright 1999-2018 Microchip Technology, All rights reserved
                      00008 ;==========================================================================
                      00009 
                      02986         LIST
                      00002     
  0000                00003     global  LCD_Initialisation, Scroll, Scroll_d_l, Scroll_d_h, Text_offset, Update_score, Set_text_upda
                            te
  0000                00004     global  LCD_RectHelper, rect_x1_l, rect_x1_h, rect_y1_l, rect_y1_h, rect_x2_l, rect_x2_h,rect_y2_l, 
                            rect_y2_h, rect_colour
  0000                00005     extern  Delay_ms, Delay_x4us, Box_test, Decrement_dy
                      00006 
                      00007 ;Data sheet definition (register array, pin, constant)
                      00008 
                      00009 ; Command/Data pins for SPI
                      00010 #define RA8875_DATAWRITE        0x00
                      00011 #define RA8875_CMDWRITE         0x80
                      00012 
                      00013 ; Registers & bits
                      00014 #define RA8875_PWRR             0x01
                      00015 #define RA8875_PWRR_DISPON      0x80
                      00016 #define RA8875_PWRR_NORMAL      0x00
                      00017 
                      00018 #define RA8875_GPIOX            0xC7
                      00019 
                      00020 #define RA8875_PLLC1            0x88
                      00021 #define RA8875_PLLC1_PLLDIV1    0x00
                      00022 
                      00023 #define RA8875_PLLC2            0x89
                      00024 #define RA8875_PLLC2_DIV4       0x02
                      00025 #define RA8875_SYSR             0x10
                      00026 #define RA8875_SYSR_8BPP        0x00
                      00027 #define RA8875_SYSR_16BPP       0x0C
                      00028 #define RA8875_SYSR_MCU8        0x00
                      00029 
                      00030 #define RA8875_PCSR             0x04
                      00031 #define RA8875_PCSR_PDATR       0x00
                      00032 #define RA8875_PCSR_PDATL       0x80
                      00033 #define RA8875_PCSR_2CLK        0x01
                      00034     
                      00035 #define RA8875_HDWR             0x14
                      00036     
                      00037 #define RA8875_HNDFTR           0x15
                      00038 #define RA8875_HNDFTR_DE_HIGH   0x00
                      00039 
                      00040 #define RA8875_HNDR             0x16
                      00041 #define RA8875_HSTR             0x17
MPASM 5.81                           LCD.ASM   11-21-2019  15:29:22         PAGE  2


LOC  OBJECT CODE     LINE SOURCE TEXT
  VALUE

                      00042 #define RA8875_HPWR             0x18
                      00043 
                      00044 #define RA8875_VDHR0            0x19
                      00045 #define RA8875_VDHR1            0x1A
                      00046 #define RA8875_VNDR0            0x1B
                      00047 #define RA8875_VNDR1            0x1C
                      00048 #define RA8875_VSTR0            0x1D
                      00049 #define RA8875_VSTR1            0x1E
                      00050 #define RA8875_VPWR             0x1F
                      00051 
                      00052 #define RA8875_HSAW0            0x30
                      00053 #define RA8875_HSAW1            0x31
                      00054 #define RA8875_VSAW0            0x32
                      00055 #define RA8875_VSAW1            0x33
                      00056 
                      00057 #define RA8875_HEAW0            0x34
                      00058 #define RA8875_HEAW1            0x35
                      00059 #define RA8875_VEAW0            0x36
                      00060 #define RA8875_VEAW1            0x37
                      00061 
                      00062 #define RA8875_MCLR             0x8E
                      00063 
                      00064 #define RA8875_ELLIPSE          0xA0
                      00065 
                      00066 #define RA8875_MWCR0            0x40
                      00067 
                      00068 #define RA8875_MWCR1            0x40
                      00069     
                      00070 
                      00071 ;PWM1 Control register
                      00072 #define RA8875_P1CR             0x8A
                      00073 #define RA8875_P1CR_ENABLE      0x80
                      00074 
                      00075 #define RA8875_P1DCR            0x8B
                      00076 
                      00077 
                      00078 ;Scroll window registers
                      00079 #define RA8875_HSSW0            0x38        ;Horizontal start point 0 of scroll window register
                      00080 #define RA8875_HSSW1            0x39        ;Horizontal start point 1 of scroll window register
                      00081 #define RA8875_VSSW0            0x3A        ;Vertical start point 0 of scroll window register
                      00082 #define RA8875_VSSW1            0x3B        ;Vertical start point 1 of scroll window register
                      00083 #define RA8875_HESW0            0x3C        ;Horizontal end point 0 of scroll window register
                      00084 #define RA8875_HESW1            0x3D        ;Horizontal end point 1 of scroll window register
                      00085 #define RA8875_VESW0            0x3E        ;Vertical end point 0 of scroll window register
                      00086 #define RA8875_VESW1            0x3F        ;Vertical end point 1 of scroll window register
                      00087 #define RA8875_LTPR0            0x52        ;Layer transparency 0 register
                      00088 #define RA8875_DPCR             0x20        ;Display configuration register
                      00089 
                      00090 ;command data
                      00091 #define RA8875_SCROLL_BUFFER    0xC0
                      00092 #define RA8875_PWM_CLK_DIV1024  0x0A
                      00093     
                      00094 ;pre-defined constants
MPASM 5.81                           LCD.ASM   11-21-2019  15:29:22         PAGE  3


LOC  OBJECT CODE     LINE SOURCE TEXT
  VALUE

                      00095 #define LCD_width               800
                      00096 #define LCD_height              480
                      00097 #define pixclk                  (RA8875_PCSR_PDATL | RA8875_PCSR_2CLK)
                      00098 
                      00099 #define tri_y1_l            .175
                      00100 #define tri_y1_h            .1
                      00101 #define tri_y2_l            .175
                      00102 #define tri_y2_h            .1 
                      00103 #define tri_y3_l            .145  
                      00104 #define tri_y3_h            .1
                      00105 #define tri_xoffset         .100
                      00106     
                      00107 #define tri_x1_start        .33
                      00108 #define tri_x3_start        .50
                      00109 #define tri_base            .34
                      00110     
                      00111 #define scroll_yend_l           .144
                      00112 #define scroll_yend_h           .1
                      00113 #define scroll_speed            .2
                      00114 #define LYEN                    7       ;Control bit location, layer enable
                      00115 #define FLASH                   6
                      00116 #define flash_duration          .25
                      00117     
                      00118 #define RST             0
                      00119 #define MOSI            4
                      00120 #define MISO            5
                      00121 #define SCK             6
                      00122 #define CS              7
                      00123     
                      00124 acs_lcd    udata_acs   ; reserve data space in access ram
000000                00125 Scroll_d_l          res 1
000001                00126 Scroll_d_h          res 1
000002                00127 Flash_counter       res 1                   
000003                00128 Control             res 1
                      00129                     
                      00130 ;global parameters for LCD_RectHelper
                      00131 acs_ovr         access_ovr
000000                00132 input_cmd           res 1
000001                00133 input_data          res 1  
000002                00134 rect_x1_h           res 1
000003                00135 rect_y1_h           res 1
000004                00136 rect_x2_h           res 1
000005                00137 rect_y2_h           res 1
000006                00138 rect_x1_l           res 1
000007                00139 rect_y1_l           res 1
000008                00140 rect_x2_l           res 1
000009                00141 rect_y2_l           res 1
00000A                00142 rect_colour         res 1
00000B                00143 tmp1                res 1
00000C                00144 Text_offset         res 1
                      00145 
                      00146     
00000D                00147 tri_x1_l            res 1
MPASM 5.81                           LCD.ASM   11-21-2019  15:29:22         PAGE  4


LOC  OBJECT CODE     LINE SOURCE TEXT
  VALUE

00000E                00148 tri_x1_h            res 1
00000F                00149 tri_x2_l            res 1
000010                00150 tri_x2_h            res 1
000011                00151 tri_x3_l            res 1
000012                00152 tri_x3_h            res 1
000013                00153 tri_colour          res 1          ; input 0 for purple box when boxes match
                      00154               
                      00155 
                      00156 LCD code
                      00157 ;Scroll next layer
000000                00158 Scroll
000000 0E90           00159     movlw   scroll_yend_l
000002 6E??           00160     movwf   Scroll_d_l
000004 0E01           00161     movlw   scroll_yend_h
000006 6E??           00162     movwf   Scroll_d_h
000008                00163 scrl        
000008 EC?? F???      00164     call    Box_test
00000C EC?? F???      00165     call    LCD_ScrollY
000010 EC?? F???      00166     call    Decrement_dy
000014 BC??           00167     btfsc   Control, FLASH
000016 D???           00168     bra     Flash_goal
                      00169 
000018                00170 scrl2
000018 0E02           00171     movlw   scroll_speed
00001A EC?? F???      00172     call    Delay_ms
00001E 0E3C           00173     movlw   .60
000020 EC?? F???      00174     call    Delay_x4us
000024 06??           00175     decf    Scroll_d_l, F       ; borrow when 0x00 -> 0xff
000026 0E00           00176     movlw   0x00                ; W=0   
000028 5A??           00177     subwfb  Scroll_d_h, F       ; no carry when 0x00 -> 0xff
00002A E2??           00178     bc      scrl
00002C 7E??           00179     btg     Control, LYEN
00002E AE??           00180     btfss   Control, LYEN
000030 D???           00181     bra     ly1
000032 EC?? F???      00182     call    LYEN2
000036 EC?? F???      00183 cly call    Clear_Layer
00003A 0012           00184     return
00003C                00185 Flash_goal
00003C 4E??           00186     dcfsnz  Flash_counter
00003E EC?? F???      00187     call    Setup_goal
000042 D???           00188     bra     scrl2
                      00189     
000044                00190 Set_text_update
                      00191     ;Write on layer 1
000044 EC?? F???      00192     call    LYEN1
                      00193     ;Flash goal
000048 EC?? F???      00194     call    Goal_flash
                      00195     ;Foreground colour to white
00004C 0E63           00196     movlw   0x63
00004E 6E??           00197     movwf   input_cmd
000050 0E07           00198     movlw   b'111'
000052 6E??           00199     movwf   input_data
000054 EC?? F???      00200     call    SPI_writeREG
MPASM 5.81                           LCD.ASM   11-21-2019  15:29:22         PAGE  5


LOC  OBJECT CODE     LINE SOURCE TEXT
  VALUE

000058 0E64           00201     movlw   0x64
00005A 6E??           00202     movwf   input_cmd
00005C 0E07           00203     movlw   b'111'
00005E 6E??           00204     movwf   input_data
000060 EC?? F???      00205     call    SPI_writeREG
000064 0E65           00206     movlw   0x65
000066 6E??           00207     movwf   input_cmd
000068 0E03           00208     movlw   b'11'
00006A 6E??           00209     movwf   input_data
00006C EC?? F???      00210     call    SPI_writeREG
000070 0012           00211     return
                      00212     
000072                00213 Goal_flash
                      00214     ;;when box matches keypad output, immdeiately call the goal flash
000072 0E19           00215     movlw   flash_duration
000074 6E??           00216     movwf   Flash_counter
000076 38EF           00217     swapf   INDF0, W
000078 0B07           00218     andlw   b'111'
00007A 6A??           00219     clrf    tri_colour
00007C EC?? F???      00220     call    Goal_Triangle_draw
                      00221     
000080 8C??           00222     bsf     Control, FLASH
000082 0012           00223     return    
000084                00224 Update_score
000084 0F30           00225     addlw   0x30
000086 6E??           00226     movwf   tmp1
000088 EC?? F???      00227     call    Set_cursor
00008C 50??           00228     movf    tmp1, W
00008E EC?? F???      00229     call    LCD_TextHelper
000092 0012           00230     return
                      00231     
                      00232 ;temporary subroutine
000094 EC?? F???      00233 ly1 call    LYEN1
000098 D???           00234     bra     cly
00009A                00235 LCD_ScrollY  
00009A 0E26           00236     movlw   0x26
00009C 6E??           00237     movwf   input_cmd
00009E C??? F???      00238     movff   Scroll_d_l, input_data
0000A2 BE??           00239     btfsc   Control, LYEN
0000A4 EC?? F???      00240     call    LCD_ScrollY_layer2_l
0000A8 EC?? F???      00241     call    SPI_writeREG
0000AC 0E27           00242     movlw   0x27
0000AE 6E??           00243     movwf   input_cmd
0000B0 C??? F???      00244     movff   Scroll_d_h, input_data
0000B4 BE??           00245     btfsc   Control, LYEN
0000B6 EC?? F???      00246     call    LCD_ScrollY_layer2_h
0000BA EC?? F???      00247     call    SPI_writeREG
0000BE 0012           00248     return
                      00249     
0000C0                00250 LCD_ScrollY_layer2_l
0000C0 0E90           00251     movlw   scroll_yend_l
0000C2 24??           00252     addwf   Scroll_d_l, W
0000C4 6E??           00253     movwf   input_data
MPASM 5.81                           LCD.ASM   11-21-2019  15:29:22         PAGE  6


LOC  OBJECT CODE     LINE SOURCE TEXT
  VALUE

0000C6 0012           00254     return
                      00255     
0000C8                00256 LCD_ScrollY_layer2_h
0000C8 0E01           00257     movlw   scroll_yend_h
0000CA 20??           00258     addwfc  Scroll_d_h, W
0000CC 6E??           00259     movwf   input_data
0000CE 0012           00260     return
                      00261 
0000D0                00262 Clear_Layer
0000D0 0E00           00263     movlw   .0
0000D2 6E??           00264     movwf   rect_x1_l
0000D4 0E00           00265     movlw   .0
0000D6 6E??           00266     movwf   rect_x1_h
0000D8 0E00           00267     movlw   .0
0000DA 6E??           00268     movwf   rect_y1_l
0000DC 0E00           00269     movlw   .0
0000DE 6E??           00270     movwf   rect_y1_h
0000E0 0E1F           00271     movlw   .31
0000E2 6E??           00272     movwf   rect_x2_l
0000E4 0E03           00273     movlw   .3
0000E6 6E??           00274     movwf   rect_x2_h
0000E8 0E90           00275     movlw   scroll_yend_l
0000EA 6E??           00276     movwf   rect_y2_l
0000EC 0E01           00277     movlw   scroll_yend_h
0000EE 6E??           00278     movwf   rect_y2_h
0000F0 6A??           00279     clrf    rect_colour
0000F2 EC?? F???      00280     call    LCD_RectHelper
0000F6 0E05           00281     movlw   .5
0000F8 EC?? F???      00282     call    Delay_ms
0000FC 0012           00283     return
                      00284     
                      00285 ;;;;;;;;;;;;;;;;;;;;;;;;;;;;;;;;;;;;;;;;;;;;;;;;;;;;;;;;;;;
                      00286 ;write to register funcitons
0000FE                00287 LCD_Initialisation
                      00288     ;set pins
0000FE 6A8C           00289     clrf    LATD
000100 8E8C           00290     bsf     LATD, CS
000102 888C           00291     bsf     LATD, MOSI
000104 8C8C           00292     bsf     LATD, SCK
000106 6A95           00293     clrf    TRISD
000108 8A95           00294     bsf     TRISD, MISO
                      00295 
                      00296     ;reset
00010A 908C           00297     bcf     LATD, RST
00010C 0E64           00298     movlw   .100
00010E EC?? F???      00299     call    Delay_ms
000112 808C           00300     bsf     LATD, RST
000114 0E64           00301     movlw   .100
000116 EC?? F???      00302     call    Delay_ms
                      00303     
00011A EC?? F???      00304     call    SPI_MasterInit
00011E EC?? F???      00305     call    LCD_PLLinit
                      00306     
MPASM 5.81                           LCD.ASM   11-21-2019  15:29:22         PAGE  7


LOC  OBJECT CODE     LINE SOURCE TEXT
  VALUE

000122 0E10           00307     movlw   RA8875_SYSR
000124 6E??           00308     movwf   input_cmd
000126 0E00           00309     movlw   (RA8875_SYSR_8BPP | RA8875_SYSR_MCU8)
000128 6E??           00310     movwf   input_data
00012A EC?? F???      00311     call    SPI_writeREG
                      00312 
00012E 0E04           00313     movlw   RA8875_PCSR
000130 6E??           00314     movwf   input_cmd
000132 0E81           00315     movlw   pixclk
000134 6E??           00316     movwf   input_data
000136 EC?? F???      00317     call    SPI_writeREG
00013A 0E01           00318     movlw   .1
00013C EC?? F???      00319     call    Delay_ms
                      00320     
                      00321     ; Horizontal settings registers 
000140 0E14           00322     movlw   RA8875_HDWR
000142 6E??           00323     movwf   input_cmd
000144 0E63           00324     movlw   .99                                         ;(LCD_width / 8) - 1)
000146 6E??           00325     movwf   input_data
000148 EC?? F???      00326     call    SPI_writeREG
00014C 0E15           00327     movlw   RA8875_HNDFTR
00014E 6E??           00328     movwf   input_cmd
000150 0E00           00329     movlw   RA8875_HNDFTR_DE_HIGH
000152 6E??           00330     movwf   input_data
000154 EC?? F???      00331     call    SPI_writeREG
000158 0E16           00332     movlw   RA8875_HNDR
00015A 6E??           00333     movwf   input_cmd
00015C 0E03           00334     movlw   .3              ;  (hsync_nondisp - hsync_finetune - 2)/8)
00015E 6E??           00335     movwf   input_data
000160 EC?? F???      00336     call    SPI_writeREG
000164 0E17           00337     movlw   RA8875_HSTR
000166 6E??           00338     movwf   input_cmd
000168 0E03           00339     movlw   .3;  hsync_start/8 - 1)
00016A 6E??           00340     movwf   input_data
00016C EC?? F???      00341     call    SPI_writeREG
000170 0E18           00342     movlw   RA8875_HPWR
000172 6E??           00343     movwf   input_cmd
000174 0E0B           00344     movlw   .11;  RA8875_HPWR_LOW + (hsync_pw/8 - 1))
000176 6E??           00345     movwf   input_data
000178 EC?? F???      00346     call    SPI_writeREG
                      00347 
                      00348     ; Vertical settings registers ;
00017C 0E19           00349     movlw   RA8875_VDHR0
00017E 6E??           00350     movwf   input_cmd
000180 0EDF           00351     movlw   .223;(LCD_height - 1 + _voffset) & 0xFF
000182 6E??           00352     movwf   input_data
000184 EC?? F???      00353     call    SPI_writeREG
000188 0E1A           00354     movlw   RA8875_VDHR1
00018A 6E??           00355     movwf   input_cmd
00018C 0E01           00356     movlw   .1;  (uint16_t)(LCD_height - 1 + _voffset) >> 8);
00018E 6E??           00357     movwf   input_data
000190 EC?? F???      00358     call    SPI_writeREG
000194 0E1B           00359     movlw   RA8875_VNDR0
MPASM 5.81                           LCD.ASM   11-21-2019  15:29:22         PAGE  8


LOC  OBJECT CODE     LINE SOURCE TEXT
  VALUE

000196 6E??           00360     movwf   input_cmd
000198 0E1F           00361     movlw   .31;  vsync_nondisp-1);                          
00019A 6E??           00362     movwf   input_data
00019C EC?? F???      00363     call    SPI_writeREG
0001A0 0E1C           00364     movlw   RA8875_VNDR1
0001A2 6E??           00365     movwf   input_cmd
0001A4 0E00           00366     movlw   .0; vsync_nondisp >> 8);
0001A6 6E??           00367     movwf   input_data
0001A8 EC?? F???      00368     call    SPI_writeREG
0001AC 0E1D           00369     movlw   RA8875_VSTR0
0001AE 6E??           00370     movwf   input_cmd
0001B0 0E16           00371     movlw   .22;  vsync_start-1);                            ; Vsync start position = VSTR + 1
0001B2 6E??           00372     movwf   input_data
0001B4 EC?? F???      00373     call    SPI_writeREG
0001B8 0E1E           00374     movlw   RA8875_VSTR1
0001BA 6E??           00375     movwf   input_cmd
0001BC 0E00           00376     movlw   .0;  vsync_start >> 8);
0001BE 6E??           00377     movwf   input_data
0001C0 EC?? F???      00378     call    SPI_writeREG
0001C4 0E1F           00379     movlw   RA8875_VPWR
0001C6 6E??           00380     movwf   input_cmd
0001C8 0E01           00381     movlw   .1;  RA8875_VPWR_LOW + vsync_pw - 1);            ; Vsync pulse width = VPWR + 1
0001CA 6E??           00382     movwf   input_data
0001CC EC?? F???      00383     call    SPI_writeREG
                      00384 
                      00385     ; Set active window X ;
0001D0 0E30           00386     movlw   RA8875_HSAW0
0001D2 6E??           00387     movwf   input_cmd
0001D4 0E00           00388     movlw   .0; ; horizontal start point
0001D6 6E??           00389     movwf   input_data
0001D8 EC?? F???      00390     call    SPI_writeREG
0001DC 0E31           00391     movlw   RA8875_HSAW1
0001DE 6E??           00392     movwf   input_cmd
0001E0 0E00           00393     movlw   .0;
0001E2 6E??           00394     movwf   input_data
0001E4 EC?? F???      00395     call    SPI_writeREG
0001E8 0E34           00396     movlw   RA8875_HEAW0
0001EA 6E??           00397     movwf   input_cmd
0001EC 0E1F           00398     movlw   .31;(LCD_width - 1) & 0xFF);            ; horizontal end point
0001EE 6E??           00399     movwf   input_data
0001F0 EC?? F???      00400     call    SPI_writeREG
0001F4 0E35           00401     movlw   RA8875_HEAW1
0001F6 6E??           00402     movwf   input_cmd
0001F8 0E03           00403     movlw   .3;  (uint16_t)(LCD_width - 1) >> 8);
0001FA 6E??           00404     movwf   input_data
0001FC EC?? F???      00405     call    SPI_writeREG
                      00406 
                      00407     ; Set active window Y ;
000200 0E32           00408     movlw   RA8875_VSAW0
000202 6E??           00409     movwf   input_cmd
000204 0E00           00410     movlw   .0;  0 + _voffset);                              ; vertical start point
000206 6E??           00411     movwf   input_data
000208 EC?? F???      00412     call    SPI_writeREG
MPASM 5.81                           LCD.ASM   11-21-2019  15:29:22         PAGE  9


LOC  OBJECT CODE     LINE SOURCE TEXT
  VALUE

00020C 0E33           00413     movlw   RA8875_VSAW1
00020E 6E??           00414     movwf   input_cmd
000210 0E00           00415     movlw   .0;  0 + _voffset);
000212 6E??           00416     movwf   input_data
000214 EC?? F???      00417     call    SPI_writeREG
000218 0E36           00418     movlw   RA8875_VEAW0
00021A 6E??           00419     movwf   input_cmd
00021C 0EDF           00420     movlw   .223;  (uint16_t)(LCD_height - 1 + _voffset) & 0xFF); ; vertical end point
00021E 6E??           00421     movwf   input_data
000220 EC?? F???      00422     call    SPI_writeREG
000224 0E37           00423     movlw   RA8875_VEAW1
000226 6E??           00424     movwf   input_cmd
000228 0E01           00425     movlw   .1;  (uint16_t)(LCD_height - 1 + _voffset) >> 8);
00022A 6E??           00426     movwf   input_data
00022C EC?? F???      00427     call    SPI_writeREG
                      00428 
                      00429     ; Clear the entire window
000230 0E8E           00430     movlw   RA8875_MCLR
000232 6E??           00431     movwf   input_cmd
000234 0EC0           00432     movlw   b'11000000';
000236 6E??           00433     movwf   input_data
000238 EC?? F???      00434     call    SPI_writeREG
00023C 0EFA           00435     movlw   .250
00023E EC?? F???      00436     call    Delay_ms
000242 0EFA           00437     movlw   .250
000244 EC?? F???      00438     call    Delay_ms
                      00439 
000248 EC?? F???      00440     call    LCD_DisplayOn
00024C EC?? F???      00441     call    LCD_GPIOX           ;// Enable TFT - display enable tied to GPIOX
000250 EC?? F???      00442     call    LCD_PWM1config      ; // PWM output for backlight
000254 EC?? F???      00443     call    LCD_PWM1out
000258 EC?? F???      00444     call    LCD_SetScrollWindow
00025C EC?? F???      00445     call    LCD_TwoLayers
                      00446     
000260 9E??           00447     bcf     Control, LYEN
                      00448     ;call    LYEN2
                      00449     ;call    Clear_Layer
000262 EC?? F???      00450     call    LYEN1
                      00451     
000266 EC?? F???      00452     call    Setup_score
00026A EC?? F???      00453     call    Setup_goal
00026E 0012           00454     return
                      00455     
                      00456     
000270                00457 Setup_score
                      00458     ;CGROM select, ASCII Latin-1
000270 0E21           00459     movlw   0x21
000272 6E??           00460     movwf   input_cmd
000274 0E00           00461     movlw   b'00000000'
000276 6E??           00462     movwf   input_data
000278 EC?? F???      00463     call    SPI_writeREG
                      00464     
                      00465     ;Background colour
MPASM 5.81                           LCD.ASM   11-21-2019  15:29:22         PAGE 10


LOC  OBJECT CODE     LINE SOURCE TEXT
  VALUE

00027C 0E60           00466     movlw   0x60
00027E 6E??           00467     movwf   input_cmd
000280 0E00           00468     movlw   b'000'
000282 6E??           00469     movwf   input_data
000284 EC?? F???      00470     call    SPI_writeREG
000288 0E61           00471     movlw   0x61
00028A 6E??           00472     movwf   input_cmd
00028C 0E00           00473     movlw   b'000'
00028E 6E??           00474     movwf   input_data
000290 EC?? F???      00475     call    SPI_writeREG
000294 0E62           00476     movlw   0x62
000296 6E??           00477     movwf   input_cmd
000298 0E00           00478     movlw   b'00'
00029A 6E??           00479     movwf   input_data
00029C EC?? F???      00480     call    SPI_writeREG
                      00481     
                      00482     ;Foreground colour
0002A0 0E63           00483     movlw   0x63
0002A2 6E??           00484     movwf   input_cmd
0002A4 0E07           00485     movlw   b'111'
0002A6 6E??           00486     movwf   input_data
0002A8 EC?? F???      00487     call    SPI_writeREG
0002AC 0E64           00488     movlw   0x64
0002AE 6E??           00489     movwf   input_cmd
0002B0 0E07           00490     movlw   b'111'
0002B2 6E??           00491     movwf   input_data
0002B4 EC?? F???      00492     call    SPI_writeREG
0002B8 0E65           00493     movlw   0x65
0002BA 6E??           00494     movwf   input_cmd
0002BC 0E03           00495     movlw   b'11'
0002BE 6E??           00496     movwf   input_data
0002C0 EC?? F???      00497     call    SPI_writeREG
                      00498     
                      00499     ;Font enlargement
0002C4 0E22           00500     movlw   0x22
0002C6 6E??           00501     movwf   input_cmd
0002C8 0E05           00502     movlw   b'00000101'             ;X2
0002CA 6E??           00503     movwf   input_data
0002CC EC?? F???      00504     call    SPI_writeREG    
                      00505     
                      00506     ;Write text
0002D0 6A??           00507     clrf    Text_offset
0002D2 EC?? F???      00508     call    Set_cursor
0002D6 0E53           00509     movlw   0x53                ;'S'
0002D8 EC?? F???      00510     call    LCD_TextHelper
0002DC 0E63           00511     movlw   0x63                ;'c'
0002DE EC?? F???      00512     call    LCD_TextHelper
0002E2 0E6F           00513     movlw   0x6F                ;'o'
0002E4 EC?? F???      00514     call    LCD_TextHelper
0002E8 0E72           00515     movlw   0x72                ;'r'
0002EA EC?? F???      00516     call    LCD_TextHelper 
0002EE 0E65           00517     movlw   0x65                ;'e'
0002F0 EC?? F???      00518     call    LCD_TextHelper
MPASM 5.81                           LCD.ASM   11-21-2019  15:29:22         PAGE 11


LOC  OBJECT CODE     LINE SOURCE TEXT
  VALUE

0002F4 0E3A           00519     movlw   0x3A                ;':'
0002F6 EC?? F???      00520     call    LCD_TextHelper
                      00521     ;000000
0002FA 0E30           00522     movlw   0x30
0002FC EC?? F???      00523     call    LCD_TextHelper
000300 0E30           00524     movlw   0x30
000302 EC?? F???      00525     call    LCD_TextHelper
000306 0E30           00526     movlw   0x30
000308 EC?? F???      00527     call    LCD_TextHelper
00030C 0E30           00528     movlw   0x30
00030E EC?? F???      00529     call    LCD_TextHelper
000312 0E30           00530     movlw   0x30
000314 EC?? F???      00531     call    LCD_TextHelper
000318 0E30           00532     movlw   0x30
00031A EC?? F???      00533     call    LCD_TextHelper
00031E 0012           00534     return
                      00535    
000320                00536 Set_cursor
                      00537     ;Horizontal cursor position
000320 0E2A           00538     movlw   0x2A
000322 6E??           00539     movwf   input_cmd
000324 0E57           00540     movlw   .87
000326 24??           00541     addwf   Text_offset, W
000328 6E??           00542     movwf   input_data
00032A EC?? F???      00543     call    SPI_writeREG        
00032E 0E2B           00544     movlw   0x2B
000330 6E??           00545     movwf   input_cmd
000332 6A??           00546     clrf    input_data
000334 0E02           00547     movlw   b'10'
000336 22??           00548     addwfc  input_data, F
000338 EC?? F???      00549     call    SPI_writeREG  
                      00550     ;Vertical cursor position
00033C 0E2C           00551     movlw   0x2C
00033E 6E??           00552     movwf   input_cmd
000340 0EBF           00553     movlw   .191
000342 6E??           00554     movwf   input_data
000344 EC?? F???      00555     call    SPI_writeREG 
000348 0E2D           00556     movlw   0x2D
00034A 6E??           00557     movwf   input_cmd
00034C 0E01           00558     movlw   .1
00034E 6E??           00559     movwf   input_data
000350 EC?? F???      00560     call    SPI_writeREG  
000354 0012           00561     return
                      00562     
000356                00563 LCD_TextHelper
000356 6E??           00564     movwf   input_data
000358 0E02           00565     movlw   0x02
00035A 6E??           00566     movwf   input_cmd
00035C EC?? F???      00567     call    SPI_writeREG
000360 0012           00568     return
                      00569 
                      00570     
000362                00571 LCD_RectHelper
MPASM 5.81                           LCD.ASM   11-21-2019  15:29:22         PAGE 12


LOC  OBJECT CODE     LINE SOURCE TEXT
  VALUE

                      00572     ;/* Set X1 */
000362 0E91           00573     movlw   0x91
000364 6E??           00574     movwf   input_cmd
000366 C??? F???      00575     movff   rect_x1_l, input_data
00036A EC?? F???      00576     call    SPI_writeREG
00036E 0E92           00577     movlw   0x92
000370 6E??           00578     movwf   input_cmd
000372 C??? F???      00579     movff   rect_x1_h, input_data
000376 EC?? F???      00580     call    SPI_writeREG
                      00581     
                      00582     ;/* Set Y1 */
00037A 0E93           00583     movlw   0x93
00037C 6E??           00584     movwf   input_cmd
00037E C??? F???      00585     movff   rect_y1_l, input_data
000382 EC?? F???      00586     call    SPI_writeREG
000386 0E94           00587     movlw   0x94
000388 6E??           00588     movwf   input_cmd
00038A C??? F???      00589     movff   rect_y1_h, input_data
00038E EC?? F???      00590     call    SPI_writeREG
                      00591 
                      00592     ;/* Set X2 */
000392 0E95           00593     movlw   0x95
000394 6E??           00594     movwf   input_cmd
000396 C??? F???      00595     movff   rect_x2_l, input_data
00039A EC?? F???      00596     call    SPI_writeREG
00039E 0E96           00597     movlw   0x96
0003A0 6E??           00598     movwf   input_cmd
0003A2 C??? F???      00599     movff   rect_x2_h, input_data
0003A6 EC?? F???      00600     call    SPI_writeREG
                      00601 
                      00602     ;/* Set Y2 */
0003AA 0E97           00603     movlw   0x97
0003AC 6E??           00604     movwf   input_cmd
0003AE C??? F???      00605     movff   rect_y2_l, input_data
0003B2 EC?? F???      00606     call    SPI_writeREG
0003B6 0E98           00607     movlw   0x98
0003B8 6E??           00608     movwf   input_cmd
0003BA C??? F???      00609     movff   rect_y2_h, input_data
0003BE EC?? F???      00610     call    SPI_writeREG
                      00611     
                      00612     ;/* Set r1 */
0003C2 0EA1           00613     movlw   0xA1
0003C4 6E??           00614     movwf   input_cmd
0003C6 0E05           00615     movlw   .5
0003C8 6E??           00616     movwf   input_data
0003CA EC?? F???      00617     call    SPI_writeREG
0003CE 0EA2           00618     movlw   0xA2
0003D0 6E??           00619     movwf   input_cmd
0003D2 0E00           00620     movlw   .0
0003D4 6E??           00621     movwf   input_data
0003D6 EC?? F???      00622     call    SPI_writeREG
                      00623     
                      00624     ;/* Set r2 */
MPASM 5.81                           LCD.ASM   11-21-2019  15:29:22         PAGE 13


LOC  OBJECT CODE     LINE SOURCE TEXT
  VALUE

0003DA 0EA3           00625     movlw   0xA3
0003DC 6E??           00626     movwf   input_cmd
0003DE 0E05           00627     movlw   .5
0003E0 6E??           00628     movwf   input_data
0003E2 EC?? F???      00629     call    SPI_writeREG
0003E6 0EA4           00630     movlw   0xA4
0003E8 6E??           00631     movwf   input_cmd
0003EA 0E00           00632     movlw   .0
0003EC 6E??           00633     movwf   input_data
0003EE EC?? F???      00634     call    SPI_writeREG
                      00635 
                      00636     ;/* Set Color */
0003F2 0E63           00637     movlw   0x63
0003F4 6E??           00638     movwf   input_cmd
0003F6 0E07           00639     movlw   b'111'
0003F8 14??           00640     andwf   rect_colour, W
0003FA 6E??           00641     movwf   input_data
0003FC EC?? F???      00642     call    SPI_writeREG
000400 0E64           00643     movlw   0x64                
000402 6E??           00644     movwf   input_cmd
000404 42??           00645     rrncf   rect_colour, F
000406 42??           00646     rrncf   rect_colour, F
000408 42??           00647     rrncf   rect_colour, F
00040A 0E07           00648     movlw   b'111'
00040C 14??           00649     andwf   rect_colour, W
00040E 6E??           00650     movwf   input_data
000410 EC?? F???      00651     call    SPI_writeREG
000414 0E65           00652     movlw   0x65
000416 6E??           00653     movwf   input_cmd
000418 42??           00654     rrncf   rect_colour, F
00041A 42??           00655     rrncf   rect_colour, F
00041C 42??           00656     rrncf   rect_colour, F
00041E 0E03           00657     movlw   b'11'
000420 14??           00658     andwf   rect_colour, W
000422 6E??           00659     movwf   input_data
000424 EC?? F???      00660     call    SPI_writeREG
                      00661 
                      00662     ;/* Draw! */
000428 0EA0           00663     movlw   RA8875_ELLIPSE
00042A 6E??           00664     movwf   input_cmd
00042C 0EE0           00665     movlw   0xE0                    ;0xE0 for fill
00042E 6E??           00666     movwf   input_data
000430 EC?? F???      00667     call    SPI_writeREG
                      00668 
                      00669     ;/* Wait for the command to finish */
000434 0E01           00670     movlw   .1
000436 EC?? F???      00671     call    Delay_ms
00043A 0012           00672     return
                      00673     
00043C                00674 LCD_PLLinit
00043C 0E88           00675     movlw   RA8875_PLLC1
00043E 6E??           00676     movwf   input_cmd
000440 0E00           00677     movlw   RA8875_PLLC1_PLLDIV1
MPASM 5.81                           LCD.ASM   11-21-2019  15:29:22         PAGE 14


LOC  OBJECT CODE     LINE SOURCE TEXT
  VALUE

000442 0F0B           00678     addlw   .11
000444 6E??           00679     movwf   input_data
000446 EC?? F???      00680     call    SPI_writeREG
00044A 0E01           00681     movlw   .1
00044C EC?? F???      00682     call    Delay_ms
                      00683    
000450 0E89           00684     movlw   RA8875_PLLC2
000452 6E??           00685     movwf   input_cmd
000454 0E02           00686     movlw   RA8875_PLLC2_DIV4
000456 6E??           00687     movwf   input_data
000458 EC?? F???      00688     call    SPI_writeREG
00045C 0E01           00689     movlw   .1
00045E EC?? F???      00690     call    Delay_ms
000462 0012           00691     return
                      00692 
000464                00693 LCD_DisplayOn
000464 0E01           00694     movlw   RA8875_PWRR
000466 6E??           00695     movwf   input_cmd
000468 0E80           00696     movlw   (RA8875_PWRR_NORMAL | RA8875_PWRR_DISPON);;
00046A 6E??           00697     movwf   input_data
00046C EC?? F???      00698     call    SPI_writeREG
000470 0012           00699     return
                      00700 
000472                00701 LCD_GPIOX
000472 0EC7           00702     movlw   RA8875_GPIOX
000474 6E??           00703     movwf   input_cmd
000476 0E01           00704     movlw   .1
000478 6E??           00705     movwf   input_data
00047A EC?? F???      00706     call    SPI_writeREG
00047E 0012           00707     return
                      00708     
000480                00709 LCD_PWM1config
000480 0E8A           00710     movlw   RA8875_P1CR
000482 6E??           00711     movwf   input_cmd
000484 0E8A           00712     movlw   (RA8875_P1CR_ENABLE | (RA8875_PWM_CLK_DIV1024 & 0xF))
000486 6E??           00713     movwf   input_data
000488 EC?? F???      00714     call    SPI_writeREG
00048C 0012           00715     return
                      00716     
00048E                00717 LCD_PWM1out
00048E 0E8B           00718     movlw   RA8875_P1DCR
000490 6E??           00719     movwf   input_cmd
000492 0EFF           00720     movlw   .255
000494 6E??           00721     movwf   input_data
000496 EC?? F???      00722     call    SPI_writeREG
00049A 0012           00723     return
                      00724 
00049C                00725 LCD_SetScrollWindow
                      00726     ;// Horizontal Start point of Scroll Window
00049C 0E38           00727     movlw   0x38
00049E 6E??           00728     movwf   input_cmd
0004A0 0E00           00729     movlw   .0
0004A2 6E??           00730     movwf   input_data
MPASM 5.81                           LCD.ASM   11-21-2019  15:29:22         PAGE 15


LOC  OBJECT CODE     LINE SOURCE TEXT
  VALUE

0004A4 EC?? F???      00731     call    SPI_writeREG
0004A8 0E39           00732     movlw   0x39
0004AA 6E??           00733     movwf   input_cmd
0004AC 0E00           00734     movlw   .0
0004AE 6E??           00735     movwf   input_data
0004B0 EC?? F???      00736     call    SPI_writeREG
                      00737    
                      00738     ;// Vertical Start Point of Scroll Window
0004B4 0E3A           00739     movlw   0x3A
0004B6 6E??           00740     movwf   input_cmd
0004B8 0E00           00741     movlw   .0
0004BA 6E??           00742     movwf   input_data
0004BC EC?? F???      00743     call    SPI_writeREG
0004C0 0E3B           00744     movlw   0x3B
0004C2 6E??           00745     movwf   input_cmd
0004C4 0E00           00746     movlw   .0
0004C6 6E??           00747     movwf   input_data
0004C8 EC?? F???      00748     call    SPI_writeREG
                      00749     
                      00750     ;// Horizontal End Point of Scroll Window
0004CC 0E3C           00751     movlw   0x3C
0004CE 6E??           00752     movwf   input_cmd
0004D0 0E1F           00753     movlw   .31
0004D2 6E??           00754     movwf   input_data
0004D4 EC?? F???      00755     call    SPI_writeREG
0004D8 0E3D           00756     movlw   0x3D
0004DA 6E??           00757     movwf   input_cmd
0004DC 0E03           00758     movlw   .3
0004DE 6E??           00759     movwf   input_data
0004E0 EC?? F???      00760     call    SPI_writeREG
                      00761     
                      00762   ;// Vertical End Point of Scroll Window
0004E4 0E3E           00763     movlw   0x3E
0004E6 6E??           00764     movwf   input_cmd
0004E8 0E90           00765     movlw   scroll_yend_l
0004EA 6E??           00766     movwf   input_data
0004EC EC?? F???      00767     call    SPI_writeREG
0004F0 0E3F           00768     movlw   0x3F
0004F2 6E??           00769     movwf   input_cmd
0004F4 0E01           00770     movlw   scroll_yend_h
0004F6 6E??           00771     movwf   input_data
0004F8 EC?? F???      00772     call    SPI_writeREG
                      00773 
                      00774     ;// Scroll function setting
0004FC 0E52           00775     movlw   0x52
0004FE 6E??           00776     movwf   input_cmd
000500 0EC0           00777     movlw   b'11000000'             ;buffer scroll[7:6] : b'11'
000502 6E??           00778     movwf   input_data
000504 EC?? F???      00779     call    SPI_writeREG
000508 0012           00780     return 
                      00781     
00050A                00782 LCD_TwoLayers
00050A 0E20           00783     movlw   0x20
MPASM 5.81                           LCD.ASM   11-21-2019  15:29:22         PAGE 16


LOC  OBJECT CODE     LINE SOURCE TEXT
  VALUE

00050C 6E??           00784     movwf   input_cmd
00050E 0E80           00785     movlw   b'10000000'             ;two layer mode[7] : b'1'
000510 6E??           00786     movwf   input_data
000512 EC?? F???      00787     call    SPI_writeREG
000516 0E40           00788     movlw   0x40
000518 6E??           00789     movwf   input_cmd               ;text mode[7] : b'1'
00051A 0E80           00790     movlw   b'10000000'
00051C 6E??           00791     movwf   input_data
00051E EC?? F???      00792     call    SPI_writeREG
000522 0012           00793     return
                      00794     
                      00795 ;temporary subroutine
000524                00796 LYEN1
000524 0E41           00797     movlw   0x41
000526 6E??           00798     movwf   input_cmd
000528 0E00           00799     movlw   .0                          ;layer 1
00052A 6E??           00800     movwf   input_data
00052C EC?? F???      00801     call    SPI_writeREG
000530 0012           00802     return
                      00803     
000532                00804 LYEN2
000532 0E41           00805     movlw   0x41
000534 6E??           00806     movwf   input_cmd
000536 0E01           00807     movlw   .1                          ;layer 2
000538 6E??           00808     movwf   input_data
00053A EC?? F???      00809     call    SPI_writeREG
00053E 0012           00810     return
                      00811     
000540                00812 SPI_writeREG
000540 EC?? F???      00813     call    SPI_writeCMD
000544 EC?? F???      00814     call    SPI_writeDATA
000548 0012           00815     return
                      00816 
00054A                00817 SPI_writeCMD
00054A 9E8C           00818     bcf     LATD, CS
00054C 0E80           00819     movlw   RA8875_CMDWRITE
00054E EC?? F???      00820     call    SPI_MasterTransmit
000552 50??           00821     movf    input_cmd, W
000554 EC?? F???      00822     call    SPI_MasterTransmit
000558 8E8C           00823     bsf     LATD, CS
00055A 0012           00824     return
                      00825     
00055C                00826 SPI_writeDATA
00055C 9E8C           00827     bcf     LATD, CS
00055E 0E00           00828     movlw   RA8875_DATAWRITE
000560 EC?? F???      00829     call    SPI_MasterTransmit
000564 50??           00830     movf    input_data, W
000566 EC?? F???      00831     call    SPI_MasterTransmit
00056A 8E8C           00832     bsf     LATD, CS    
00056C 0012           00833     return
00056E                00834 SPI_MasterInit ; Set Clock edge to negative
00056E 9C68           00835     bcf SSP2STAT, CKE
                      00836     ; MSSP enable; CKP=1; SPI master, clock=Fosc/64 (1MHz)
MPASM 5.81                           LCD.ASM   11-21-2019  15:29:22         PAGE 17


LOC  OBJECT CODE     LINE SOURCE TEXT
  VALUE

000570 0E32           00837     movlw (1<<SSPEN)|(1<<CKP)|(0x02)
000572 6E67           00838     movwf SSP2CON1
000574 0012           00839     return
                      00840     
000576                00841 SPI_MasterTransmit ; Start transmission of data (held in W)
000576 6E6A           00842     movwf SSP2BUF
                      00843     
000578                00844 Wait_Transmit ; Wait for transmission to complete
000578 AAA1           00845     btfss PIR2, SSP2IF
00057A D???           00846     bra Wait_Transmit
00057C 9AA1           00847     bcf PIR2, SSP2IF ; clear interrupt flag
00057E 0012           00848     return    
                      00849     
000580                00850 LCD_TriHelper
                      00851     ;/* Set X1 */
000580 0E91           00852     movlw   0x91
000582 6E??           00853     movwf   input_cmd
000584 C??? F???      00854     movff   tri_x1_l, input_data
000588 EC?? F???      00855     call    SPI_writeREG
00058C 0E92           00856     movlw   0x92
00058E 6E??           00857     movwf   input_cmd
000590 C??? F???      00858     movff   tri_x1_h, input_data
000594 EC?? F???      00859     call    SPI_writeREG
                      00860     
                      00861     ;/* Set Y1 */
000598 0E93           00862     movlw   0x93
00059A 6E??           00863     movwf   input_cmd
00059C 0EAF           00864     movlw   tri_y1_l
00059E 6E??           00865     movwf   input_data
0005A0 EC?? F???      00866     call    SPI_writeREG
0005A4 0E94           00867     movlw   0x94
0005A6 6E??           00868     movwf   input_cmd
0005A8 0E01           00869     movlw   tri_y1_h
0005AA 6E??           00870     movwf   input_data
0005AC EC?? F???      00871     call    SPI_writeREG
                      00872 
                      00873     ;/* Set X2 */
0005B0 0E95           00874     movlw   0x95
0005B2 6E??           00875     movwf   input_cmd
0005B4 C??? F???      00876     movff   tri_x2_l, input_data
0005B8 EC?? F???      00877     call    SPI_writeREG
0005BC 0E96           00878     movlw   0x96
0005BE 6E??           00879     movwf   input_cmd
0005C0 C??? F???      00880     movff   tri_x2_h, input_data
0005C4 EC?? F???      00881     call    SPI_writeREG
                      00882 
                      00883     ;/* Set Y2 */
0005C8 0E97           00884     movlw   0x97
0005CA 6E??           00885     movwf   input_cmd
0005CC 0EAF           00886     movlw   tri_y2_l
0005CE 6E??           00887     movwf   input_data
0005D0 EC?? F???      00888     call    SPI_writeREG
0005D4 0E98           00889     movlw   0x98
MPASM 5.81                           LCD.ASM   11-21-2019  15:29:22         PAGE 18


LOC  OBJECT CODE     LINE SOURCE TEXT
  VALUE

0005D6 6E??           00890     movwf   input_cmd
0005D8 0E01           00891     movlw   tri_y2_h
0005DA 6E??           00892     movwf   input_data
0005DC EC?? F???      00893     call    SPI_writeREG
                      00894     
                      00895      ;/* Set X3 */
0005E0 0EA9           00896     movlw   0xA9
0005E2 6E??           00897     movwf   input_cmd
0005E4 C??? F???      00898     movff   tri_x3_l, input_data
0005E8 EC?? F???      00899     call    SPI_writeREG
0005EC 0EAA           00900     movlw   0xAA
0005EE 6E??           00901     movwf   input_cmd
0005F0 C??? F???      00902     movff   tri_x3_h, input_data
0005F4 EC?? F???      00903     call    SPI_writeREG
                      00904     
                      00905     
                      00906      ;/* Set Y3 */
0005F8 0EAB           00907     movlw   0xAB
0005FA 6E??           00908     movwf   input_cmd
0005FC 0E91           00909     movlw   tri_y3_l
0005FE 6E??           00910     movwf   input_data
000600 EC?? F???      00911     call    SPI_writeREG
000604 0EAC           00912     movlw   0xAC
000606 6E??           00913     movwf   input_cmd
000608 0E01           00914     movlw   tri_y3_h
00060A 6E??           00915     movwf   input_data
00060C EC?? F???      00916     call    SPI_writeREG
                      00917     
                      00918     ;/* Set Color */
000610 0E63           00919     movlw   0x63
000612 6E??           00920     movwf   input_cmd
000614 0E07           00921     movlw   .7                       ;0~7
000616 6E??           00922     movwf   input_data
000618 EC?? F???      00923     call    SPI_writeREG
00061C 0E64           00924     movlw   0x64                  
00061E 6E??           00925     movwf   input_cmd
000620 C??? F???      00926     movff   tri_colour, input_data                       ;0~7
000624 EC?? F???      00927     call    SPI_writeREG
000628 0E65           00928     movlw   0x65
00062A 6E??           00929     movwf   input_cmd
00062C 0E07           00930     movlw   .7                       ;0~3
00062E 6E??           00931     movwf   input_data
000630 EC?? F???      00932     call    SPI_writeREG
                      00933 
                      00934     ;/* Draw! */
000634 0E90           00935     movlw   0x90
000636 6E??           00936     movwf   input_cmd
000638 0EA1           00937     movlw   0xA1                    ;0xA1 for fill
00063A 6E??           00938     movwf   input_data
00063C EC?? F???      00939     call    SPI_writeREG
                      00940 
                      00941     ;/* Wait for the command to finish */
000640 0E01           00942     movlw   .1
MPASM 5.81                           LCD.ASM   11-21-2019  15:29:22         PAGE 19


LOC  OBJECT CODE     LINE SOURCE TEXT
  VALUE

000642 EC?? F???      00943     call    Delay_ms
000646 0012           00944     return
                      00945     
                      00946 
                      00947     
000648                00948 Setup_goal
000648 9C??           00949     bcf     Control, FLASH
00064A 0E07           00950     movlw   .7
00064C 6E??           00951     movwf   tri_colour
00064E 0E07           00952     movlw   .7
000650 6E??           00953     movwf   tmp1
000652                00954 Setup_goal_loop
000652 50??           00955     movf    tmp1, W
000654 EC?? F???      00956     call    Goal_Triangle_draw
000658 06??           00957     decf    tmp1
00065A E2??           00958     bc      Setup_goal_loop
00065C 0012           00959     return
                      00960 
00065E                00961 Goal_Triangle_draw
00065E 0D64           00962     mullw   tri_xoffset
                      00963     
000660 0E21           00964     movlw   tri_x1_start
000662 24F3           00965     addwf   PRODL, W
000664 6E??           00966     movwf   tri_x1_l
000666 6E??           00967     movwf   tri_x2_l
000668 0E00           00968     movlw   .0
00066A 20F4           00969     addwfc  PRODH, W
00066C 6E??           00970     movwf   tri_x1_h
00066E 6E??           00971     movwf   tri_x2_h
                      00972     
000670 0E22           00973     movlw   tri_base
000672 26??           00974     addwf   tri_x2_l, F
000674 0E00           00975     movlw   .0
000676 22??           00976     addwfc  tri_x2_h, F
                      00977     
000678 0E32           00978     movlw   tri_x3_start
00067A 24F3           00979     addwf   PRODL, W
00067C 6E??           00980     movwf   tri_x3_l
00067E 0E00           00981     movlw   .0
000680 20F4           00982     addwfc  PRODH, W
000682 6E??           00983     movwf   tri_x3_h
                      00984     
000684 EC?? F???      00985     call    LCD_TriHelper
000688 0012           00986     return
                      00987     
                      00988 
                      00989 
                      00990     end
MPASM 5.81                           LCD.ASM   11-21-2019  15:29:22         PAGE 20


SYMBOL TABLE
  LABEL                             VALUE 

A                                 00000000
A16                               00000000
A17                               00000001
A18                               00000002
A19                               00000003
ABDEN                             00000000
ABDOVF                            00000007
ACCESS                            00000000
ACKDT                             00000005
ACKEN                             00000004
ACKSTAT                           00000006
ACQT0                             00000003
ACQT1                             00000004
ACQT2                             00000005
AD0                               00000000
AD1                               00000001
AD10                              00000002
AD11                              00000003
AD12                              00000004
AD13                              00000005
AD14                              00000006
AD15                              00000007
AD2                               00000002
AD3                               00000003
AD4                               00000004
AD5                               00000005
AD6                               00000006
AD7                               00000007
AD8                               00000000
AD9                               00000001
ADCMD                             00000000
ADCON0                            00000FC2
ADCON1                            00000FC1
ADCON2                            00000FC0
ADCS0                             00000000
ADCS1                             00000001
ADCS2                             00000002
ADDEN                             00000003
ADDEN1                            00000003
ADDEN2                            00000003
ADEN                              00000003
ADFM                              00000007
ADIE                              00000006
ADIF                              00000006
ADIP                              00000006
ADMSK1                            00000001
ADMSK2                            00000002
ADMSK3                            00000003
ADMSK4                            00000004
ADMSK5                            00000005
ADON                              00000000
ADRES                             00000FC3
ADRESH                            00000FC4
MPASM 5.81                           LCD.ASM   11-21-2019  15:29:22         PAGE 21


SYMBOL TABLE
  LABEL                             VALUE 

ADRESL                            00000FC3
ALE                               00000000
ALRMCFG                           00000F5B
ALRMEN                            00000007
ALRMPTR0                          00000000
ALRMPTR1                          00000001
ALRMRPT                           00000F5A
ALRMVAL                           00000F58
ALRMVALH                          00000F59
ALRMVALL                          00000F58
AMASK0                            00000002
AMASK1                            00000003
AMASK2                            00000004
AMASK3                            00000005
AN0                               00000000
AN1                               00000001
AN10                              00000005
AN11                              00000006
AN12                              00000004
AN13                              00000005
AN14                              00000006
AN15                              00000007
AN16                              00000004
AN17                              00000003
AN18                              00000002
AN19                              00000001
AN2                               00000002
AN20                              00000003
AN21                              00000002
AN22                              00000001
AN23                              00000000
AN3                               00000003
AN4                               00000005
AN5                               00000007
AN6                               00000001
AN7                               00000002
AN8                               00000003
AN9                               00000004
ANCON0                            00000F25
ANCON1                            00000F24
ANCON2                            00000F23
ANSEL0                            00000000
ANSEL1                            00000001
ANSEL10                           00000002
ANSEL11                           00000003
ANSEL12                           00000004
ANSEL13                           00000005
ANSEL14                           00000006
ANSEL15                           00000007
ANSEL16                           00000000
ANSEL17                           00000001
ANSEL18                           00000002
ANSEL19                           00000003
MPASM 5.81                           LCD.ASM   11-21-2019  15:29:22         PAGE 22


SYMBOL TABLE
  LABEL                             VALUE 

ANSEL2                            00000002
ANSEL20                           00000004
ANSEL21                           00000005
ANSEL22                           00000006
ANSEL23                           00000007
ANSEL3                            00000003
ANSEL4                            00000004
ANSEL5                            00000005
ANSEL6                            00000006
ANSEL7                            00000007
ANSEL8                            00000000
ANSEL9                            00000001
ARPT0                             00000000
ARPT1                             00000001
ARPT2                             00000002
ARPT3                             00000003
ARPT4                             00000004
ARPT5                             00000005
ARPT6                             00000006
ARPT7                             00000007
BA0                               00000004
BANKED                            00000001
BAUDCON                           00000F65
BAUDCON1                          00000F65
BAUDCON2                          00000F20
BAUDCTL                           00000F65
BCL1IE                            00000003
BCL1IF                            00000003
BCL1IP                            00000003
BCL2IE                            00000004
BCL2IF                            00000004
BCL2IP                            00000004
BCLIE                             00000003
BCLIF                             00000003
BCLIP                             00000003
BF                                00000000
BGVST                             00000006
BOR                               00000000
BRG16                             00000003
BRGH                              00000002
BRGH1                             00000002
BRGH2                             00000002
BSR                               00000FE0
Box_test                          00000000
C                                 00000000
C10TSEL0                          00000004
C1INA                             00000006
C1INB                             00000005
C1INC                             00000006
C1OUT                             00000002
C1TSEL0                           00000000
C1TSEL1                           00000001
C1TSEL2                           00000002
MPASM 5.81                           LCD.ASM   11-21-2019  15:29:22         PAGE 23


SYMBOL TABLE
  LABEL                             VALUE 

C2INA                             00000004
C2INB                             00000003
C2INC                             00000004
C2IND                             00000005
C2OUT                             00000001
C2TSEL0                           00000003
C2TSEL1                           00000004
C2TSEL2                           00000005
C3INA                             00000002
C3INB                             00000003
C3INC                             00000004
C3OUT                             00000001
C3TSEL0                           00000006
C3TSEL1                           00000007
C4TSEL0                           00000000
C4TSEL1                           00000001
C5TSEL0                           00000002
C6TSEL0                           00000004
C7TSEL0                           00000006
C7TSEL1                           00000007
C8TSEL0                           00000000
C8TSEL1                           00000001
C9TSEL0                           00000002
CAL0                              00000000
CAL1                              00000001
CAL2                              00000002
CAL3                              00000003
CAL4                              00000004
CAL5                              00000005
CAL6                              00000006
CAL7                              00000007
CCH0                              00000000
CCH1                              00000001
CCP1                              00000002
CCP10                             00000002
CCP10CON                          00000F40
CCP10IE                           00000007
CCP10IF                           00000007
CCP10IP                           00000007
CCP10M0                           00000000
CCP10M1                           00000001
CCP10M2                           00000002
CCP10M3                           00000003
CCP10MD                           00000007
CCP10OD                           00000007
CCP10X                            00000005
CCP10Y                            00000004
CCP1CON                           00000FBB
CCP1IE                            00000001
CCP1IF                            00000001
CCP1IP                            00000001
CCP1M0                            00000000
CCP1M1                            00000001
MPASM 5.81                           LCD.ASM   11-21-2019  15:29:22         PAGE 24


SYMBOL TABLE
  LABEL                             VALUE 

CCP1M2                            00000002
CCP1M3                            00000003
CCP1MD                            00000005
CCP1OD                            00000005
CCP1X                             00000005
CCP1Y                             00000004
CCP2CON                           00000F4E
CCP2IE                            00000002
CCP2IF                            00000002
CCP2IP                            00000002
CCP2M0                            00000000
CCP2M1                            00000001
CCP2M2                            00000002
CCP2M3                            00000003
CCP2MD                            00000006
CCP2OD                            00000006
CCP2X                             00000005
CCP2Y                             00000004
CCP2_P2A                          00000003
CCP2_PORTC                        00000001
CCP2_PORTE                        00000007
CCP3                              00000000
CCP3CON                           00000F49
CCP3IE                            00000000
CCP3IF                            00000000
CCP3IP                            00000000
CCP3M0                            00000000
CCP3M1                            00000001
CCP3M2                            00000002
CCP3M3                            00000003
CCP3MD                            00000007
CCP3OD                            00000000
CCP4                              00000003
CCP4CON                           00000F77
CCP4IE                            00000001
CCP4IF                            00000001
CCP4IP                            00000001
CCP4M0                            00000000
CCP4M1                            00000001
CCP4M2                            00000002
CCP4M3                            00000003
CCP4MD                            00000001
CCP4OD                            00000001
CCP4X                             00000005
CCP4Y                             00000004
CCP5                              00000004
CCP5CON                           00000F74
CCP5IE                            00000002
CCP5IF                            00000002
CCP5IP                            00000002
CCP5M0                            00000000
CCP5M1                            00000001
CCP5M2                            00000002
MPASM 5.81                           LCD.ASM   11-21-2019  15:29:22         PAGE 25


SYMBOL TABLE
  LABEL                             VALUE 

CCP5M3                            00000003
CCP5MD                            00000002
CCP5OD                            00000002
CCP5X                             00000005
CCP5Y                             00000004
CCP6CON                           00000F71
CCP6IE                            00000003
CCP6IF                            00000003
CCP6IP                            00000003
CCP6M0                            00000000
CCP6M1                            00000001
CCP6M2                            00000002
CCP6M3                            00000003
CCP6MD                            00000003
CCP6OD                            00000003
CCP6X                             00000005
CCP6Y                             00000004
CCP6_PORTE                        00000006
CCP6_PORTH                        00000007
CCP7CON                           00000F6E
CCP7IE                            00000004
CCP7IF                            00000004
CCP7IP                            00000004
CCP7M0                            00000000
CCP7M1                            00000001
CCP7M2                            00000002
CCP7M3                            00000003
CCP7MD                            00000004
CCP7OD                            00000004
CCP7X                             00000005
CCP7Y                             00000004
CCP7_PORTE                        00000005
CCP7_PORTH                        00000006
CCP8CON                           00000F46
CCP8IE                            00000005
CCP8IF                            00000005
CCP8IP                            00000005
CCP8M0                            00000000
CCP8M1                            00000001
CCP8M2                            00000002
CCP8M3                            00000003
CCP8MD                            00000005
CCP8OD                            00000005
CCP8X                             00000005
CCP8Y                             00000004
CCP8_PORTE                        00000004
CCP8_PORTH                        00000005
CCP9CON                           00000F43
CCP9IE                            00000006
CCP9IF                            00000006
CCP9IP                            00000006
CCP9M0                            00000000
CCP9M1                            00000001
MPASM 5.81                           LCD.ASM   11-21-2019  15:29:22         PAGE 26


SYMBOL TABLE
  LABEL                             VALUE 

CCP9M2                            00000002
CCP9M3                            00000003
CCP9MD                            00000006
CCP9OD                            00000006
CCP9X                             00000005
CCP9Y                             00000004
CCP9_PORTE                        00000003
CCP9_PORTH                        00000004
CCPR1                             00000FBC
CCPR10                            00000F41
CCPR10H                           00000F42
CCPR10L                           00000F41
CCPR1H                            00000FBD
CCPR1L                            00000FBC
CCPR2                             00000F4F
CCPR2H                            00000F50
CCPR2L                            00000F4F
CCPR3                             00000F4A
CCPR3H                            00000F4B
CCPR3L                            00000F4A
CCPR4                             00000F78
CCPR4H                            00000F79
CCPR4L                            00000F78
CCPR5                             00000F75
CCPR5H                            00000F76
CCPR5L                            00000F75
CCPR6                             00000F72
CCPR6H                            00000F73
CCPR6L                            00000F72
CCPR7                             00000F6F
CCPR7H                            00000F70
CCPR7L                            00000F6F
CCPR8                             00000F47
CCPR8H                            00000F48
CCPR8L                            00000F47
CCPR9                             00000F44
CCPR9H                            00000F45
CCPR9L                            00000F44
CCPTMRS0                          00000F2D
CCPTMRS1                          00000F2C
CCPTMRS2                          00000F2B
CE                                00000005
CFGS                              00000006
CHIME                             00000006
CHS0                              00000002
CHS1                              00000003
CHS2                              00000004
CHS3                              00000005
CHS4                              00000006
CHSN0                             00000000
CHSN1                             00000001
CHSN2                             00000002
CK1                               00000006
MPASM 5.81                           LCD.ASM   11-21-2019  15:29:22         PAGE 27


SYMBOL TABLE
  LABEL                             VALUE 

CK2                               00000001
CKE                               00000006
CKP                               00000004
CLKI                              00000007
CLKO                              00000006
CM                                00000005
CM1CON                            00000F54
CM1CON1                           00000F54
CM2CON                            00000F2F
CM2CON1                           00000F2F
CM3CON                            00000F2E
CM3CON1                           00000F2E
CMP1IE                            00000000
CMP1IF                            00000000
CMP1IP                            00000000
CMP1MD                            00000000
CMP1OUT                           00000005
CMP2IE                            00000001
CMP2IF                            00000001
CMP2IP                            00000001
CMP2MD                            00000001
CMP2OUT                           00000006
CMP3IE                            00000002
CMP3IF                            00000002
CMP3IP                            00000002
CMP3MD                            00000002
CMP3OUT                           00000007
CMPL0                             00000006
CMPL1                             00000007
CMSTAT                            00000FB4
CMSTATUS                          00000FB4
COE                               00000006
CON                               00000007
CPOL                              00000005
CREF                              00000002
CREN                              00000004
CREN1                             00000004
CREN2                             00000004
CS                                7
CSRC                              00000007
CSRC1                             00000007
CSRC2                             00000007
CTDIN                             00000001
CTED1                             00000002
CTED2                             00000003
CTMUCONH                          00000F57
CTMUCONL                          00000F56
CTMUDS                            00000000
CTMUEN                            00000007
CTMUI                             00000003
CTMUICON                          00000F55
CTMUIE                            00000003
CTMUIF                            00000003
MPASM 5.81                           LCD.ASM   11-21-2019  15:29:22         PAGE 28


SYMBOL TABLE
  LABEL                             VALUE 

CTMUIP                            00000003
CTMUMD                            00000006
CTMUSIDL                          00000005
CTPLS                             00000000
CTTRIG                            00000000
CVR0                              00000000
CVR1                              00000001
CVR2                              00000002
CVR3                              00000003
CVR4                              00000004
CVRCON                            00000FB5
CVREF                             00000005
CVREN                             00000007
CVROE                             00000006
CVRSS                             00000005
Clear_Layer                       000000D0
Control                           00000003
D                                 00000005
DATA_ADDRESS                      00000005
DC                                00000001
DC10B0                            00000004
DC10B1                            00000005
DC1B0                             00000004
DC1B1                             00000005
DC2B0                             00000004
DC2B1                             00000005
DC3B0                             00000004
DC3B1                             00000005
DC4B0                             00000004
DC4B1                             00000005
DC5B0                             00000004
DC5B1                             00000005
DC6B0                             00000004
DC6B1                             00000005
DC7B0                             00000004
DC7B1                             00000005
DC8B0                             00000004
DC8B1                             00000005
DC9B0                             00000004
DC9B1                             00000005
DDRA                              TRISA
DDRB                              TRISB
DDRC                              TRISC
DDRD                              TRISD
DDRE                              TRISE
DONE                              00000001
DT1                               00000007
DT2                               00000002
D_A                               00000005
D_NOT_A                           00000005
Decrement_dy                      00000000
Delay_ms                          00000000
Delay_x4us                        00000000
MPASM 5.81                           LCD.ASM   11-21-2019  15:29:22         PAGE 29


SYMBOL TABLE
  LABEL                             VALUE 

EBDIS                             00000007
ECCP1AS                           00000FBF
ECCP1AS0                          00000004
ECCP1AS1                          00000005
ECCP1AS2                          00000006
ECCP1ASE                          00000007
ECCP1CON                          00000FBB
ECCP1DEL                          00000FBE
ECCP2AS                           00000F52
ECCP2AS0                          00000004
ECCP2AS1                          00000005
ECCP2AS2                          00000006
ECCP2ASE                          00000007
ECCP2CON                          00000F4E
ECCP2DEL                          00000F51
ECCP3AS                           00000F4D
ECCP3AS0                          00000004
ECCP3AS1                          00000005
ECCP3AS2                          00000006
ECCP3ASE                          00000007
ECCP3DEL                          00000F4C
EDG1POL                           00000004
EDG1SEL0                          00000002
EDG1SEL1                          00000003
EDG1STAT                          00000000
EDG2POL                           00000007
EDG2SEL0                          00000005
EDG2SEL1                          00000006
EDG2STAT                          00000001
EDGEN                             00000003
EDGSEQEN                          00000002
EEADR                             00000F62
EEADRH                            00000F63
EECON1                            00000F7F
EECON2                            00000F7E
EEDATA                            00000F61
EEIE                              00000004
EEIF                              00000004
EEIP                              00000004
EEPGD                             00000007
EMBMD                             00000000
EVPOL0                            00000003
EVPOL1                            00000004
FAST                              00000001
FERR                              00000002
FERR1                             00000002
FERR2                             00000002
FLASH                             6
FLT0                              00000000
FREE                              00000004
FSR0                              00000000
FSR0H                             00000FEA
FSR0L                             00000FE9
MPASM 5.81                           LCD.ASM   11-21-2019  15:29:22         PAGE 30


SYMBOL TABLE
  LABEL                             VALUE 

FSR1                              00000001
FSR1H                             00000FE2
FSR1L                             00000FE1
FSR2                              00000002
FSR2H                             00000FDA
FSR2L                             00000FD9
Flash_counter                     00000002
Flash_goal                        0000003C
GCEN                              00000007
GIE                               00000007
GIEH                              00000007
GIEL                              00000006
GIE_GIEH                          00000007
GO                                00000001
GO_NOT_DONE                       00000001
Goal_Triangle_draw                0000065E
Goal_flash                        00000072
HALFSEC                           00000003
HFIOFS                            00000002
HLVDCON                           00000FA8
HLVDEN                            00000004
HLVDIE                            00000002
HLVDIF                            00000002
HLVDIN                            00000005
HLVDIP                            00000002
HLVDL0                            00000000
HLVDL1                            00000001
HLVDL2                            00000002
HLVDL3                            00000003
I2C_DAT                           00000005
I2C_READ                          00000002
I2C_START                         00000003
I2C_STOP                          00000004
IBF                               00000007
IBOV                              00000005
IDISSEN                           00000001
IDLEN                             00000007
INDF0                             00000FEF
INDF1                             00000FE7
INDF2                             00000FDF
INT0                              00000000
INT0E                             00000004
INT0F                             00000001
INT0IE                            00000004
INT0IF                            00000001
INT1                              00000001
INT1E                             00000003
INT1F                             00000000
INT1IE                            00000003
INT1IF                            00000000
INT1IP                            00000006
INT1P                             00000006
INT2                              00000002
MPASM 5.81                           LCD.ASM   11-21-2019  15:29:22         PAGE 31


SYMBOL TABLE
  LABEL                             VALUE 

INT2E                             00000004
INT2F                             00000001
INT2IE                            00000004
INT2IF                            00000001
INT2IP                            00000007
INT2P                             00000007
INT3                              00000003
INT3E                             00000005
INT3F                             00000002
INT3IE                            00000005
INT3IF                            00000002
INT3IP                            00000001
INT3P                             00000001
INTCON                            00000FF2
INTCON2                           00000FF1
INTCON3                           00000FF0
INTEDG0                           00000006
INTEDG1                           00000005
INTEDG2                           00000004
INTEDG3                           00000003
INTSRC                            00000007
IPEN                              00000007
IPR1                              00000F9F
IPR2                              00000FA2
IPR3                              00000FA5
IPR4                              00000FB8
IPR5                              00000FD2
IPR6                              00000FA9
IRCF0                             00000004
IRCF1                             00000005
IRCF2                             00000006
IRNG0                             00000000
IRNG1                             00000001
IRVST                             00000005
ITRIM0                            00000002
ITRIM1                            00000003
ITRIM2                            00000004
ITRIM3                            00000005
ITRIM4                            00000006
ITRIM5                            00000007
KBI0                              00000004
KBI1                              00000005
KBI2                              00000006
KBI3                              00000007
LATA                              00000F89
LATA0                             00000000
LATA1                             00000001
LATA2                             00000002
LATA3                             00000003
LATA4                             00000004
LATA5                             00000005
LATA6                             00000006
LATA7                             00000007
MPASM 5.81                           LCD.ASM   11-21-2019  15:29:22         PAGE 32


SYMBOL TABLE
  LABEL                             VALUE 

LATB                              00000F8A
LATB0                             00000000
LATB1                             00000001
LATB2                             00000002
LATB3                             00000003
LATB4                             00000004
LATB5                             00000005
LATB6                             00000006
LATB7                             00000007
LATC                              00000F8B
LATC0                             00000000
LATC1                             00000001
LATC2                             00000002
LATC3                             00000003
LATC4                             00000004
LATC5                             00000005
LATC6                             00000006
LATC7                             00000007
LATD                              00000F8C
LATD0                             00000000
LATD1                             00000001
LATD2                             00000002
LATD3                             00000003
LATD4                             00000004
LATD5                             00000005
LATD6                             00000006
LATD7                             00000007
LATE                              00000F8D
LATE0                             00000000
LATE1                             00000001
LATE2                             00000002
LATE3                             00000003
LATE4                             00000004
LATE5                             00000005
LATE6                             00000006
LATE7                             00000007
LATF                              00000F8E
LATF1                             00000001
LATF2                             00000002
LATF3                             00000003
LATF4                             00000004
LATF5                             00000005
LATF6                             00000006
LATF7                             00000007
LATG                              00000F8F
LATG0                             00000000
LATG1                             00000001
LATG2                             00000002
LATG3                             00000003
LATG4                             00000004
LATH                              00000F90
LATH0                             00000000
LATH1                             00000001
MPASM 5.81                           LCD.ASM   11-21-2019  15:29:22         PAGE 33


SYMBOL TABLE
  LABEL                             VALUE 

LATH2                             00000002
LATH3                             00000003
LATH4                             00000004
LATH5                             00000005
LATH6                             00000006
LATH7                             00000007
LATJ                              00000F91
LATJ0                             00000000
LATJ1                             00000001
LATJ2                             00000002
LATJ3                             00000003
LATJ4                             00000004
LATJ5                             00000005
LATJ6                             00000006
LATJ7                             00000007
LB                                00000006
LCD_DisplayOn                     00000464
LCD_GPIOX                         00000472
LCD_Initialisation                000000FE
LCD_PLLinit                       0000043C
LCD_PWM1config                    00000480
LCD_PWM1out                       0000048E
LCD_RectHelper                    00000362
LCD_ScrollY                       0000009A
LCD_ScrollY_layer2_h              000000C8
LCD_ScrollY_layer2_l              000000C0
LCD_SetScrollWindow               0000049C
LCD_TextHelper                    00000356
LCD_TriHelper                     00000580
LCD_TwoLayers                     0000050A
LCD_height                        480
LCD_width                         800
LVDIE                             00000002
LVDIF                             00000002
LVDIP                             00000002
LYEN                              7
LYEN1                             00000524
LYEN2                             00000532
MEMCON                            00000F26
MFIOFS                            00000001
MFIOSEL                           00000000
MISO                              5
MOSI                              4
MSK0                              00000000
MSK1                              00000001
MSK2                              00000002
MSK3                              00000003
MSK4                              00000004
MSK5                              00000005
MSK6                              00000006
MSK7                              00000007
N                                 00000004
NOT_A                             00000005
MPASM 5.81                           LCD.ASM   11-21-2019  15:29:22         PAGE 34


SYMBOL TABLE
  LABEL                             VALUE 

NOT_ADDRESS                       00000005
NOT_BOR                           00000000
NOT_CM                            00000005
NOT_CS                            00000002
NOT_DONE                          00000001
NOT_PD                            00000002
NOT_POR                           00000001
NOT_RBPU                          00000007
NOT_RC8                           00000006
NOT_RD                            00000000
NOT_RI                            00000004
NOT_SS2                           00000007
NOT_T1DONE                        00000003
NOT_T1SYNC                        00000002
NOT_T3DONE                        00000003
NOT_T3SYNC                        00000002
NOT_T5DONE                        00000003
NOT_T5SYNC                        00000002
NOT_T7DONE                        00000003
NOT_T7SYNC                        00000002
NOT_TO                            00000003
NOT_TX8                           00000006
NOT_W                             00000002
NOT_WR                            00000001
NOT_WRITE                         00000002
OBF                               00000006
ODCON1                            00000F29
ODCON2                            00000F28
ODCON3                            00000F27
OE                                00000001
OERR                              00000001
OERR1                             00000001
OERR2                             00000001
OSC1                              00000007
OSC2                              00000006
OSCCON                            00000FD3
OSCCON2                           00000F64
OSCFIE                            00000007
OSCFIF                            00000007
OSCFIP                            00000007
OSCTUNE                           00000F9B
OSTS                              00000003
OV                                00000003
P                                 00000004
P1A                               00000002
P1B                               00000006
P1C                               00000005
P1DC0                             00000000
P1DC1                             00000001
P1DC2                             00000002
P1DC3                             00000003
P1DC4                             00000004
P1DC5                             00000005
MPASM 5.81                           LCD.ASM   11-21-2019  15:29:22         PAGE 35


SYMBOL TABLE
  LABEL                             VALUE 

P1DC6                             00000006
P1M0                              00000006
P1M1                              00000007
P1RSEN                            00000007
P2A_PORTC                         00000001
P2A_PORTE                         00000007
P2B                               00000002
P2C                               00000001
P2D                               00000000
P2DC0                             00000000
P2DC1                             00000001
P2DC2                             00000002
P2DC3                             00000003
P2DC4                             00000004
P2DC5                             00000005
P2DC6                             00000006
P2M0                              00000006
P2M1                              00000007
P2RSEN                            00000007
P3B                               00000004
P3C                               00000003
P3DC0                             00000000
P3DC1                             00000001
P3DC2                             00000002
P3DC3                             00000003
P3DC4                             00000004
P3DC5                             00000005
P3DC6                             00000006
P3M0                              00000006
P3M1                              00000007
P3RSEN                            00000007
PA3                               00000000
PADCFG1                           00000F53
PB1                               00000007
PB3                               00000005
PC                                00000FF9
PC1                               00000006
PC3                               00000004
PCL                               00000FF9
PCLATH                            00000FFA
PCLATU                            00000FFB
PD                                00000002
PD1                               00000004
PD3                               00000003
PEIE                              00000006
PEIE_GIEL                         00000006
PEN                               00000002
PGC                               00000006
PGD                               00000007
PGM                               00000005
PIE1                              00000F9D
PIE2                              00000FA0
PIE3                              00000FA3
MPASM 5.81                           LCD.ASM   11-21-2019  15:29:22         PAGE 36


SYMBOL TABLE
  LABEL                             VALUE 

PIE4                              00000FB6
PIE5                              00000FB9
PIE6                              00000F60
PIR1                              00000F9E
PIR2                              00000FA1
PIR3                              00000FA4
PIR4                              00000FB7
PIR5                              00000FBA
PIR6                              00000FA6
PLLEN                             00000006
PLUSW0                            00000FEB
PLUSW1                            00000FE3
PLUSW2                            00000FDB
PMD0                              00000F19
PMD1                              00000F18
PMD2                              00000F17
PMD3                              00000F16
POR                               00000001
PORTA                             00000F80
PORTB                             00000F81
PORTC                             00000F82
PORTD                             00000F83
PORTE                             00000F84
PORTF                             00000F85
PORTG                             00000F86
PORTH                             00000F87
PORTJ                             00000F88
POSTDEC0                          00000FED
POSTDEC1                          00000FE5
POSTDEC2                          00000FDD
POSTINC0                          00000FEE
POSTINC1                          00000FE6
POSTINC2                          00000FDE
PR10                              00000F34
PR12                              00000F31
PR2                               00000FCB
PR4                               00000F6C
PR6                               00000F3A
PR8                               00000F37
PREINC0                           00000FEC
PREINC1                           00000FE4
PREINC2                           00000FDC
PROD                              00000FF3
PRODH                             00000FF4
PRODL                             00000FF3
PSA                               00000003
PSP0                              00000000
PSP1                              00000001
PSP2                              00000002
PSP3                              00000003
PSP4                              00000004
PSP5                              00000005
PSP6                              00000006
MPASM 5.81                           LCD.ASM   11-21-2019  15:29:22         PAGE 37


SYMBOL TABLE
  LABEL                             VALUE 

PSP7                              00000007
PSPCON                            00000FA7
PSPIE                             00000007
PSPIF                             00000007
PSPIP                             00000007
PSPMD                             00000007
PSPMODE                           00000004
PSS1AC0                           00000002
PSS1AC1                           00000003
PSS1BD0                           00000000
PSS1BD1                           00000001
PSS2AC0                           00000002
PSS2AC1                           00000003
PSS2BD0                           00000000
PSS2BD1                           00000001
PSS3AC0                           00000002
PSS3AC1                           00000003
PSS3BD0                           00000000
PSS3BD1                           00000001
PSTR1CON                          00000F9C
PSTR2CON                          00000F1B
PSTR3CON                          00000F1A
PWM1CON                           00000FBE
PWM2CON                           00000F51
R                                 00000002
RA0                               00000000
RA1                               00000001
RA2                               00000002
RA3                               00000003
RA4                               00000004
RA5                               00000005
RA6                               00000006
RA7                               00000007
RA8875_CMDWRITE                   0x80
RA8875_DATAWRITE                  0x00
RA8875_DPCR                       0x20
RA8875_ELLIPSE                    0xA0
RA8875_GPIOX                      0xC7
RA8875_HDWR                       0x14
RA8875_HEAW0                      0x34
RA8875_HEAW1                      0x35
RA8875_HESW0                      0x3C
RA8875_HESW1                      0x3D
RA8875_HNDFTR                     0x15
RA8875_HNDFTR_DE_HIGH             0x00
RA8875_HNDR                       0x16
RA8875_HPWR                       0x18
RA8875_HSAW0                      0x30
RA8875_HSAW1                      0x31
RA8875_HSSW0                      0x38
RA8875_HSSW1                      0x39
RA8875_HSTR                       0x17
RA8875_LTPR0                      0x52
MPASM 5.81                           LCD.ASM   11-21-2019  15:29:22         PAGE 38


SYMBOL TABLE
  LABEL                             VALUE 

RA8875_MCLR                       0x8E
RA8875_MWCR0                      0x40
RA8875_MWCR1                      0x40
RA8875_P1CR                       0x8A
RA8875_P1CR_ENABLE                0x80
RA8875_P1DCR                      0x8B
RA8875_PCSR                       0x04
RA8875_PCSR_2CLK                  0x01
RA8875_PCSR_PDATL                 0x80
RA8875_PCSR_PDATR                 0x00
RA8875_PLLC1                      0x88
RA8875_PLLC1_PLLDIV1              0x00
RA8875_PLLC2                      0x89
RA8875_PLLC2_DIV4                 0x02
RA8875_PWM_CLK_DIV1024            0x0A
RA8875_PWRR                       0x01
RA8875_PWRR_DISPON                0x80
RA8875_PWRR_NORMAL                0x00
RA8875_SCROLL_BUFFER              0xC0
RA8875_SYSR                       0x10
RA8875_SYSR_16BPP                 0x0C
RA8875_SYSR_8BPP                  0x00
RA8875_SYSR_MCU8                  0x00
RA8875_VDHR0                      0x19
RA8875_VDHR1                      0x1A
RA8875_VEAW0                      0x36
RA8875_VEAW1                      0x37
RA8875_VESW0                      0x3E
RA8875_VESW1                      0x3F
RA8875_VNDR0                      0x1B
RA8875_VNDR1                      0x1C
RA8875_VPWR                       0x1F
RA8875_VSAW0                      0x32
RA8875_VSAW1                      0x33
RA8875_VSSW0                      0x3A
RA8875_VSSW1                      0x3B
RA8875_VSTR0                      0x1D
RA8875_VSTR1                      0x1E
RB0                               00000000
RB1                               00000001
RB2                               00000002
RB3                               00000003
RB4                               00000004
RB5                               00000005
RB6                               00000006
RB7                               00000007
RBIE                              00000003
RBIF                              00000000
RBIP                              00000000
RBPU                              00000007
RC0                               00000000
RC1                               00000001
RC1IE                             00000005
MPASM 5.81                           LCD.ASM   11-21-2019  15:29:22         PAGE 39


SYMBOL TABLE
  LABEL                             VALUE 

RC1IF                             00000005
RC1IP                             00000005
RC2                               00000002
RC2IE                             00000005
RC2IF                             00000005
RC2IP                             00000005
RC3                               00000003
RC4                               00000004
RC5                               00000005
RC6                               00000006
RC7                               00000007
RC8_9                             00000006
RC9                               00000006
RCD8                              00000000
RCEN                              00000003
RCIDL                             00000006
RCIE                              00000005
RCIF                              00000005
RCIP                              00000005
RCON                              00000FD0
RCREG                             00000FAE
RCREG1                            00000FAE
RCREG2                            00000F1D
RCSTA                             00000FAB
RCSTA1                            00000FAB
RCSTA2                            00000F22
RD                                00000000
RD0                               00000000
RD1                               00000001
RD16                              00000001
RD2                               00000002
RD3                               00000003
RD4                               00000004
RD5                               00000005
RD6                               00000006
RD7                               00000007
RDPU                              00000007
RE0                               00000000
RE1                               00000001
RE2                               00000002
RE3                               00000003
RE4                               00000004
RE5                               00000005
RE6                               00000006
RE7                               00000007
READ_WRITE                        00000002
REFO                              00000003
REFOCON                           00000F2A
REGSLP                            00000007
REPU                              00000006
RF1                               00000001
RF2                               00000002
RF3                               00000003
MPASM 5.81                           LCD.ASM   11-21-2019  15:29:22         PAGE 40


SYMBOL TABLE
  LABEL                             VALUE 

RF4                               00000004
RF5                               00000005
RF6                               00000006
RF7                               00000007
RG0                               00000000
RG1                               00000001
RG2                               00000002
RG3                               00000003
RG4                               00000004
RG5                               00000005
RH0                               00000000
RH1                               00000001
RH2                               00000002
RH3                               00000003
RH4                               00000004
RH5                               00000005
RH6                               00000006
RH7                               00000007
RI                                00000004
RJ0                               00000000
RJ1                               00000001
RJ2                               00000002
RJ3                               00000003
RJ4                               00000004
RJ5                               00000005
RJ6                               00000006
RJ7                               00000007
RJPU                              00000005
RODIV0                            00000000
RODIV1                            00000001
RODIV2                            00000002
RODIV3                            00000003
ROON                              00000007
ROSEL                             00000004
ROSSLP                            00000005
RSEN                              00000001
RST                               0
RTCC                              00000004
RTCCAL                            00000F5E
RTCCFG                            00000F5F
RTCCIE                            00000000
RTCCIF                            00000000
RTCCIP                            00000000
RTCCMD                            00000005
RTCEN                             00000007
RTCOE                             00000002
RTCPTR0                           00000000
RTCPTR1                           00000001
RTCSYNC                           00000004
RTCVAL                            00000F5C
RTCVALH                           00000F5D
RTCVALL                           00000F5C
RTCWREN                           00000005
MPASM 5.81                           LCD.ASM   11-21-2019  15:29:22         PAGE 41


SYMBOL TABLE
  LABEL                             VALUE 

RTSECSEL0                         00000001
RTSECSEL1                         00000002
RX1                               00000007
RX2                               00000002
RX9                               00000006
RX91                              00000006
RX92                              00000006
RX9D                              00000000
RX9D1                             00000000
RX9D2                             00000000
RXDTP                             00000005
R_NOT_W                           00000002
R_W                               00000002
S                                 00000003
SBOREN                            00000006
SCK                               6
SCK1                              00000003
SCK2                              00000006
SCKLI                             00000000
SCL1                              00000003
SCL2                              00000006
SCS0                              00000000
SCS1                              00000001
SDA1                              00000004
SDA2                              00000005
SDI1                              00000004
SDI2                              00000005
SDO1                              00000005
SDO2                              00000004
SEN                               00000000
SENDB                             00000003
SENDB1                            00000003
SENDB2                            00000003
SMP                               00000007
SOSCEN                            00000003
SOSCGO                            00000003
SOSCI                             00000001
SOSCO                             00000000
SOSCRUN                           00000006
SP0                               00000000
SP1                               00000001
SP2                               00000002
SP3                               00000003
SP4                               00000004
SPBRG                             00000FAF
SPBRG1                            00000FAF
SPBRG2                            00000F1E
SPBRGH1                           00000FD4
SPBRGH2                           00000F1F
SPEN                              00000007
SPEN1                             00000007
SPEN2                             00000007
SPI1OD                            00000007
MPASM 5.81                           LCD.ASM   11-21-2019  15:29:22         PAGE 42


SYMBOL TABLE
  LABEL                             VALUE 

SPI2OD                            00000000
SPI_MasterInit                    0000056E
SPI_MasterTransmit                00000576
SPI_writeCMD                      0000054A
SPI_writeDATA                     0000055C
SPI_writeREG                      00000540
SREN                              00000005
SREN1                             00000005
SREN2                             00000005
SRETEN                            00000004
SS1                               00000007
SSP1ADD                           00000FC8
SSP1BUF                           00000FC9
SSP1CON1                          00000FC6
SSP1CON2                          00000FC5
SSP1IE                            00000003
SSP1IF                            00000003
SSP1IP                            00000003
SSP1MD                            00000001
SSP1MSK                           00000FC8
SSP1STAT                          00000FC7
SSP2ADD                           00000F69
SSP2BUF                           00000F6A
SSP2CON1                          00000F67
SSP2CON2                          00000F66
SSP2IE                            00000005
SSP2IF                            00000005
SSP2IP                            00000005
SSP2MD                            00000002
SSP2MSK                           00000F69
SSP2STAT                          00000F68
SSPADD                            00000FC8
SSPBUF                            00000FC9
SSPCON1                           00000FC6
SSPCON2                           00000FC5
SSPEN                             00000005
SSPIE                             00000003
SSPIF                             00000003
SSPIP                             00000003
SSPM0                             00000000
SSPM1                             00000001
SSPM2                             00000002
SSPM3                             00000003
SSPOV                             00000006
SSPSTAT                           00000FC7
STATUS                            00000FD8
STKFUL                            00000007
STKOVF                            00000007
STKPTR                            00000FFC
STKUNF                            00000006
STRA                              00000000
STRB                              00000001
STRC                              00000002
MPASM 5.81                           LCD.ASM   11-21-2019  15:29:22         PAGE 43


SYMBOL TABLE
  LABEL                             VALUE 

STRD                              00000003
STRSYNC                           00000004
SWDTE                             00000000
SWDTEN                            00000000
SYNC                              00000004
SYNC1                             00000004
SYNC2                             00000004
Scroll                            00000000
Scroll_d_h                        00000001
Scroll_d_l                        00000000
Set_cursor                        00000320
Set_text_update                   00000044
Setup_goal                        00000648
Setup_goal_loop                   00000652
Setup_score                       00000270
T08BIT                            00000006
T0CKI                             00000004
T0CON                             00000FD5
T0CS                              00000005
T0IE                              00000005
T0IF                              00000002
T0IP                              00000002
T0PS0                             00000000
T0PS1                             00000001
T0PS2                             00000002
T0SE                              00000004
T10CKPS0                          00000000
T10CKPS1                          00000001
T10CON                            00000F33
T10OUTPS0                         00000003
T10OUTPS1                         00000004
T10OUTPS2                         00000005
T10OUTPS3                         00000006
T12CKPS0                          00000000
T12CKPS1                          00000001
T12CON                            00000F30
T12OUTPS0                         00000003
T12OUTPS1                         00000004
T12OUTPS2                         00000005
T12OUTPS3                         00000006
T1CKI                             00000005
T1CKPS0                           00000004
T1CKPS1                           00000005
T1CON                             00000FCD
T1G                               00000005
T1GCON                            00000FAA
T1GGO                             00000003
T1GGO_NOT_T1DONE                  00000003
T1GPOL                            00000006
T1GSPM                            00000004
T1GSS0                            00000000
T1GSS1                            00000001
T1GTM                             00000005
MPASM 5.81                           LCD.ASM   11-21-2019  15:29:22         PAGE 44


SYMBOL TABLE
  LABEL                             VALUE 

T1GVAL                            00000002
T2CKPS0                           00000000
T2CKPS1                           00000001
T2CON                             00000FCA
T2OUTPS0                          00000003
T2OUTPS1                          00000004
T2OUTPS2                          00000005
T2OUTPS3                          00000006
T3CKI                             00000005
T3CKPS0                           00000004
T3CKPS1                           00000005
T3CON                             00000FB1
T3G                               00000005
T3GCON                            00000FB0
T3GGO                             00000003
T3GGO_NOT_T3DONE                  00000003
T3GPOL                            00000006
T3GSPM                            00000004
T3GSS0                            00000000
T3GSS1                            00000001
T3GTM                             00000005
T3GVAL                            00000002
T4CKPS0                           00000000
T4CKPS1                           00000001
T4CON                             00000F6B
T4OUTPS0                          00000003
T4OUTPS1                          00000004
T4OUTPS2                          00000005
T4OUTPS3                          00000006
T5CKI                             00000001
T5CKPS0                           00000004
T5CKPS1                           00000005
T5CON                             00000F7B
T5G                               00000004
T5GCON                            00000F7A
T5GGO                             00000003
T5GGO_NOT_T5DONE                  00000003
T5GPOL                            00000006
T5GSPM                            00000004
T5GSS0                            00000000
T5GSS1                            00000001
T5GTM                             00000005
T5GVAL                            00000002
T6CKPS0                           00000000
T6CKPS1                           00000001
T6CON                             00000F39
T6OUTPS0                          00000003
T6OUTPS1                          00000004
T6OUTPS2                          00000005
T6OUTPS3                          00000006
T7CKI                             00000004
T7CKPS0                           00000004
T7CKPS1                           00000005
MPASM 5.81                           LCD.ASM   11-21-2019  15:29:22         PAGE 45


SYMBOL TABLE
  LABEL                             VALUE 

T7CON                             00000F3D
T7G                               00000001
T7GCON                            00000F3C
T7GGO                             00000003
T7GGO_NOT_T7DONE                  00000003
T7GPOL                            00000006
T7GSPM                            00000004
T7GSS0                            00000000
T7GSS1                            00000001
T7GTM                             00000005
T7GVAL                            00000002
T8CKPS0                           00000000
T8CKPS1                           00000001
T8CON                             00000F36
T8OUTPS0                          00000003
T8OUTPS1                          00000004
T8OUTPS2                          00000005
T8OUTPS3                          00000006
TABLAT                            00000FF5
TBLPTR                            00000FF6
TBLPTRH                           00000FF7
TBLPTRL                           00000FF6
TBLPTRU                           00000FF8
TGEN                              00000004
TMR0                              00000FD6
TMR0H                             00000FD7
TMR0IE                            00000005
TMR0IF                            00000002
TMR0IP                            00000002
TMR0L                             00000FD6
TMR0ON                            00000007
TMR1                              00000FCE
TMR10                             00000F35
TMR10IE                           00000005
TMR10IF                           00000005
TMR10IP                           00000005
TMR10MD                           00000007
TMR10ON                           00000002
TMR12                             00000F32
TMR12IE                           00000006
TMR12IF                           00000006
TMR12IP                           00000006
TMR12MD                           00000000
TMR12ON                           00000002
TMR1CS0                           00000006
TMR1CS1                           00000007
TMR1GE                            00000007
TMR1GIE                           00000002
TMR1GIF                           00000002
TMR1GIP                           00000002
TMR1H                             00000FCF
TMR1IE                            00000000
TMR1IF                            00000000
MPASM 5.81                           LCD.ASM   11-21-2019  15:29:22         PAGE 46


SYMBOL TABLE
  LABEL                             VALUE 

TMR1IP                            00000000
TMR1L                             00000FCE
TMR1MD                            00000001
TMR1ON                            00000000
TMR2                              00000FCC
TMR2IE                            00000001
TMR2IF                            00000001
TMR2IP                            00000001
TMR2MD                            00000002
TMR2ON                            00000002
TMR3                              00000FB2
TMR3CS0                           00000006
TMR3CS1                           00000007
TMR3GE                            00000007
TMR3GIE                           00000000
TMR3GIF                           00000000
TMR3GIP                           00000000
TMR3H                             00000FB3
TMR3IE                            00000001
TMR3IF                            00000001
TMR3IP                            00000001
TMR3L                             00000FB2
TMR3MD                            00000003
TMR3ON                            00000000
TMR4                              00000F6D
TMR4IE                            00000000
TMR4IF                            00000000
TMR4IP                            00000000
TMR4MD                            00000004
TMR4ON                            00000002
TMR5                              00000F7C
TMR5CS0                           00000006
TMR5CS1                           00000007
TMR5GE                            00000007
TMR5GIE                           00000007
TMR5GIF                           00000007
TMR5GIP                           00000007
TMR5H                             00000F7D
TMR5IE                            00000001
TMR5IF                            00000001
TMR5IP                            00000001
TMR5L                             00000F7C
TMR5MD                            00000003
TMR5ON                            00000000
TMR6                              00000F3B
TMR6IE                            00000002
TMR6IF                            00000002
TMR6IP                            00000002
TMR6MD                            00000004
TMR6ON                            00000002
TMR7                              00000F3E
TMR7CS0                           00000006
TMR7CS1                           00000007
MPASM 5.81                           LCD.ASM   11-21-2019  15:29:22         PAGE 47


SYMBOL TABLE
  LABEL                             VALUE 

TMR7GE                            00000007
TMR7GIE                           00000007
TMR7GIF                           00000007
TMR7GIP                           00000007
TMR7H                             00000F3F
TMR7IE                            00000003
TMR7IF                            00000003
TMR7IP                            00000003
TMR7L                             00000F3E
TMR7MD                            00000005
TMR7ON                            00000000
TMR8                              00000F38
TMR8IE                            00000004
TMR8IF                            00000004
TMR8IP                            00000004
TMR8MD                            00000006
TMR8ON                            00000002
TO                                00000003
TOS                               00000FFD
TOSH                              00000FFE
TOSL                              00000FFD
TOSU                              00000FFF
TRIGSEL0                          00000006
TRIGSEL1                          00000007
TRISA                             00000F92
TRISA0                            00000000
TRISA1                            00000001
TRISA2                            00000002
TRISA3                            00000003
TRISA4                            00000004
TRISA5                            00000005
TRISA6                            00000006
TRISA7                            00000007
TRISB                             00000F93
TRISB0                            00000000
TRISB1                            00000001
TRISB2                            00000002
TRISB3                            00000003
TRISB4                            00000004
TRISB5                            00000005
TRISB6                            00000006
TRISB7                            00000007
TRISC                             00000F94
TRISC0                            00000000
TRISC1                            00000001
TRISC2                            00000002
TRISC3                            00000003
TRISC4                            00000004
TRISC5                            00000005
TRISC6                            00000006
TRISC7                            00000007
TRISD                             00000F95
TRISD0                            00000000
MPASM 5.81                           LCD.ASM   11-21-2019  15:29:22         PAGE 48


SYMBOL TABLE
  LABEL                             VALUE 

TRISD1                            00000001
TRISD2                            00000002
TRISD3                            00000003
TRISD4                            00000004
TRISD5                            00000005
TRISD6                            00000006
TRISD7                            00000007
TRISE                             00000F96
TRISE0                            00000000
TRISE1                            00000001
TRISE2                            00000002
TRISE3                            00000003
TRISE4                            00000004
TRISE5                            00000005
TRISE6                            00000006
TRISE7                            00000007
TRISF                             00000F97
TRISF1                            00000001
TRISF2                            00000002
TRISF3                            00000003
TRISF4                            00000004
TRISF5                            00000005
TRISF6                            00000006
TRISF7                            00000007
TRISG                             00000F98
TRISG0                            00000000
TRISG1                            00000001
TRISG2                            00000002
TRISG3                            00000003
TRISG4                            00000004
TRISH                             00000F99
TRISH0                            00000000
TRISH1                            00000001
TRISH2                            00000002
TRISH3                            00000003
TRISH4                            00000004
TRISH5                            00000005
TRISH6                            00000006
TRISH7                            00000007
TRISJ                             00000F9A
TRISJ0                            00000000
TRISJ1                            00000001
TRISJ2                            00000002
TRISJ3                            00000003
TRISJ4                            00000004
TRISJ5                            00000005
TRISJ6                            00000006
TRISJ7                            00000007
TRMT                              00000001
TRMT1                             00000001
TRMT2                             00000001
TUN0                              00000000
TUN1                              00000001
MPASM 5.81                           LCD.ASM   11-21-2019  15:29:22         PAGE 49


SYMBOL TABLE
  LABEL                             VALUE 

TUN2                              00000002
TUN3                              00000003
TUN4                              00000004
TUN5                              00000005
TX1                               00000006
TX1IE                             00000004
TX1IF                             00000004
TX1IP                             00000004
TX2                               00000001
TX2IE                             00000004
TX2IF                             00000004
TX2IP                             00000004
TX8_9                             00000006
TX9                               00000006
TX91                              00000006
TX92                              00000006
TX9D                              00000000
TX9D1                             00000000
TX9D2                             00000000
TXCKP                             00000004
TXD8                              00000000
TXEN                              00000005
TXEN1                             00000005
TXEN2                             00000005
TXIE                              00000004
TXIF                              00000004
TXIP                              00000004
TXREG                             00000FAD
TXREG1                            00000FAD
TXREG2                            00000F1C
TXSTA                             00000FAC
TXSTA1                            00000FAC
TXSTA2                            00000F21
Text_offset                       0000000C
U1OD                              00000006
U2OD                              00000007
UA                                00000001
UART1MD                           00000003
UART2MD                           00000004
UB                                00000007
ULPEN                             00000002
ULPLVL                            00000005
ULPSINK                           00000001
ULPWU                             00000000
Update_score                      00000084
VCFG0                             00000004
VCFG1                             00000005
VDIRMAG                           00000007
VNCFG                             00000003
VREF_MINUS                        00000002
VREF_PLUS                         00000003
W                                 00000000
WAIT0                             00000004
MPASM 5.81                           LCD.ASM   11-21-2019  15:29:22         PAGE 50


SYMBOL TABLE
  LABEL                             VALUE 

WAIT1                             00000005
WCOL                              00000007
WDTCON                            00000FD1
WM0                               00000000
WM1                               00000001
WR                                00000001
WREG                              00000FE8
WREN                              00000002
WRERR                             00000003
WRH                               00000003
WRL                               00000002
WUE                               00000001
Wait_Transmit                     00000578
Z                                 00000002
_ABW_MM_3L                        000000FF
_ABW_XM12_3L                      000000EF
_ABW_XM16_3L                      000000DF
_ABW_XM20_3L                      000000CF
_BBSIZ_BB1K_4L                    000000EF
_BBSIZ_BB2K_4L                    000000FF
_BOREN_NOSLP_2L                   000000FD
_BOREN_OFF_2L                     000000F9
_BOREN_ON_2L                      000000FB
_BOREN_SBORDIS_2L                 000000FF
_BORPWR_HIGH_2L                   000000DF
_BORPWR_LOW_2L                    0000009F
_BORPWR_MEDIUM_2L                 000000BF
_BORPWR_ZPBORMV_2L                000000FF
_BORV_0_2L                        000000E7
_BORV_1_2L                        000000EF
_BORV_2_2L                        000000F7
_BORV_3_2L                        000000FF
_BW_16_3L                         000000FF
_BW_8_3L                          000000BF
_CCP2MX_PORTBE_3H                 000000FE
_CCP2MX_PORTC_3H                  000000FF
_CONFIG1H                         00300001
_CONFIG1L                         00300000
_CONFIG2H                         00300003
_CONFIG2L                         00300002
_CONFIG3H                         00300005
_CONFIG3L                         00300004
_CONFIG4L                         00300006
_CONFIG5H                         00300009
_CONFIG5L                         00300008
_CONFIG6H                         0030000B
_CONFIG6L                         0030000A
_CONFIG7H                         0030000D
_CONFIG7L                         0030000C
_CP0_OFF_5L                       000000FF
_CP0_ON_5L                        000000FE
_CP1_OFF_5L                       000000FF
_CP1_ON_5L                        000000FD
MPASM 5.81                           LCD.ASM   11-21-2019  15:29:22         PAGE 51


SYMBOL TABLE
  LABEL                             VALUE 

_CP2_OFF_5L                       000000FF
_CP2_ON_5L                        000000FB
_CP3_OFF_5L                       000000FF
_CP3_ON_5L                        000000F7
_CP4_OFF_5L                       000000FF
_CP4_ON_5L                        000000EF
_CP5_OFF_5L                       000000FF
_CP5_ON_5L                        000000DF
_CP6_OFF_5L                       000000FF
_CP6_ON_5L                        000000BF
_CP7_OFF_5L                       000000FF
_CP7_ON_5L                        0000007F
_CPB_OFF_5H                       000000FF
_CPB_ON_5H                        000000BF
_CPD_OFF_5H                       000000FF
_CPD_ON_5H                        0000007F
_DEBUG_OFF_4L                     000000FF
_DEBUG_ON_4L                      0000007F
_DEVID1                           003FFFFE
_DEVID2                           003FFFFF
_EASHFT_OFF_3L                    000000F7
_EASHFT_ON_3L                     000000FF
_EBRT0_OFF_7L                     000000FF
_EBRT0_ON_7L                      000000FE
_EBRT1_OFF_7L                     000000FF
_EBRT1_ON_7L                      000000FD
_EBRT2_OFF_7L                     000000FF
_EBRT2_ON_7L                      000000FB
_EBRT3_OFF_7L                     000000FF
_EBRT3_ON_7L                      000000F7
_EBRT4_OFF_7L                     000000FF
_EBRT4_ON_7L                      000000EF
_EBRT5_OFF_7L                     000000FF
_EBRT5_ON_7L                      000000DF
_EBRT6_OFF_7L                     000000FF
_EBRT6_ON_7L                      000000BF
_EBRT7_OFF_7L                     000000FF
_EBRT7_ON_7L                      0000007F
_EBRTB_OFF_7H                     000000FF
_EBRTB_ON_7H                      000000BF
_ECCPMX_PORTE_3H                  000000FF
_ECCPMX_PORTH_3H                  000000FD
_FCMEN_OFF_1H                     000000BF
_FCMEN_ON_1H                      000000FF
_FOSC_EC1IO_1H                    000000FC
_FOSC_EC1_1H                      000000FD
_FOSC_EC2IO_1H                    000000FA
_FOSC_EC2_1H                      000000FB
_FOSC_EC3IO_1H                    000000F4
_FOSC_EC3_1H                      000000F5
_FOSC_HS1_1H                      000000F3
_FOSC_HS2_1H                      000000F2
_FOSC_INTIO1_1H                   000000F9
MPASM 5.81                           LCD.ASM   11-21-2019  15:29:22         PAGE 52


SYMBOL TABLE
  LABEL                             VALUE 

_FOSC_INTIO2_1H                   000000F8
_FOSC_LP_1H                       000000F0
_FOSC_RCIO_1H                     000000F7
_FOSC_RC_1H                       000000F6
_FOSC_XT_1H                       000000F1
_IDLOC0                           00200000
_IDLOC1                           00200001
_IDLOC2                           00200002
_IDLOC3                           00200003
_IDLOC4                           00200004
_IDLOC5                           00200005
_IDLOC6                           00200006
_IDLOC7                           00200007
_IESO_OFF_1H                      0000007F
_IESO_ON_1H                       000000FF
_INTOSCSEL_HIGH_1L                000000FF
_INTOSCSEL_LOW_1L                 000000FB
_MCLRE_OFF_3H                     0000007F
_MCLRE_ON_3H                      000000FF
_MSSPMSK_MSK5_3H                  000000F7
_MSSPMSK_MSK7_3H                  000000FF
_PLLCFG_OFF_1H                    000000EF
_PLLCFG_ON_1H                     000000FF
_PWRTEN_OFF_2L                    000000FF
_PWRTEN_ON_2L                     000000FE
_RETEN_OFF_1L                     000000FE
_RETEN_ON_1L                      000000FF
_RTCOSC_INTOSCREF_3L              000000FE
_RTCOSC_SOSCREF_3L                000000FF
_SOSCSEL_DIG_1L                   000000F7
_SOSCSEL_HIGH_1L                  000000FF
_SOSCSEL_LOW_1L                   000000EF
_STVREN_OFF_4L                    000000FE
_STVREN_ON_4L                     000000FF
_WAIT_OFF_3L                      000000FF
_WAIT_ON_3L                       0000007F
_WDTEN_NOSLP_2H                   000000FD
_WDTEN_OFF_2H                     000000FC
_WDTEN_ON_2H                      000000FE
_WDTEN_SWDTDIS_2H                 000000FF
_WDTPS_1024_2H                    000000AB
_WDTPS_1048576_2H                 000000FF
_WDTPS_128_2H                     0000009F
_WDTPS_131072_2H                  000000C7
_WDTPS_16384_2H                   000000BB
_WDTPS_16_2H                      00000093
_WDTPS_1_2H                       00000083
_WDTPS_2048_2H                    000000AF
_WDTPS_256_2H                     000000A3
_WDTPS_262144_2H                  000000CB
_WDTPS_2_2H                       00000087
_WDTPS_32768_2H                   000000BF
_WDTPS_32_2H                      00000097
MPASM 5.81                           LCD.ASM   11-21-2019  15:29:22         PAGE 53


SYMBOL TABLE
  LABEL                             VALUE 

_WDTPS_4096_2H                    000000B3
_WDTPS_4_2H                       0000008B
_WDTPS_512_2H                     000000A7
_WDTPS_524288_2H                  000000CF
_WDTPS_64_2H                      0000009B
_WDTPS_65536_2H                   000000C3
_WDTPS_8192_2H                    000000B7
_WDTPS_8_2H                       0000008F
_WRT0_OFF_6L                      000000FF
_WRT0_ON_6L                       000000FE
_WRT1_OFF_6L                      000000FF
_WRT1_ON_6L                       000000FD
_WRT2_OFF_6L                      000000FF
_WRT2_ON_6L                       000000FB
_WRT3_OFF_6L                      000000FF
_WRT3_ON_6L                       000000F7
_WRT4_OFF_6L                      000000FF
_WRT4_ON_6L                       000000EF
_WRT5_OFF_6L                      000000FF
_WRT5_ON_6L                       000000DF
_WRT6_OFF_6L                      000000FF
_WRT6_ON_6L                       000000BF
_WRT7_OFF_6L                      000000FF
_WRT7_ON_6L                       0000007F
_WRTB_OFF_6H                      000000FF
_WRTB_ON_6H                       000000BF
_WRTC_OFF_6H                      000000FF
_WRTC_ON_6H                       000000DF
_WRTD_OFF_6H                      000000FF
_WRTD_ON_6H                       0000007F
_XINST_OFF_1L                     000000BF
_XINST_ON_1L                      000000FF
__18F87K22                        00000001
cly                               00000036
flash_duration                    .25
input_cmd                         00000000
input_data                        00000001
ly1                               00000094
pixclk                            (RA8875_PCSR_PDATL | RA8875_PCSR_2CLK)
rect_colour                       0000000A
rect_x1_h                         00000002
rect_x1_l                         00000006
rect_x2_h                         00000004
rect_x2_l                         00000008
rect_y1_h                         00000003
rect_y1_l                         00000007
rect_y2_h                         00000005
rect_y2_l                         00000009
scrl                              00000008
scrl2                             00000018
scroll_speed                      .2
scroll_yend_h                     .1
scroll_yend_l                     .144
MPASM 5.81                           LCD.ASM   11-21-2019  15:29:22         PAGE 54


SYMBOL TABLE
  LABEL                             VALUE 

tmp1                              0000000B
tri_base                          .34
tri_colour                        00000013
tri_x1_h                          0000000E
tri_x1_l                          0000000D
tri_x1_start                      .33
tri_x2_h                          00000010
tri_x2_l                          0000000F
tri_x3_h                          00000012
tri_x3_l                          00000011
tri_x3_start                      .50
tri_xoffset                       .100
tri_y1_h                          .1
tri_y1_l                          .175
tri_y2_h                          .1
tri_y2_l                          .175
tri_y3_h                          .1
tri_y3_l                          .145

Errors   :     0
Warnings :     0 reported,     0 suppressed
Messages :     0 reported,     0 suppressed

