MPLINK 5.09, LINKER
Linker Map File - Created Tue Nov 19 15:51:48 2019

                                 Section Info
                  Section       Type    Address   Location Size(Bytes)
                ---------  ---------  ---------  ---------  ---------
                      Run       code   0x000000    program   0x00001c
                   .cinit    romdata   0x00001c    program   0x000002
                      LCD       code   0x00001e    program   0x000526
                     Main       code   0x000544    program   0x0001ea
                   Keypad       code   0x00072e    program   0x000054
                    Music       code   0x000782    program   0x000046
                 GameData       code   0x0007c8    program   0x000042
.config_300000_BUILD/DEFAULT/DEBUG/CONFIG.O    romdata   0x300000    program   0x000001
.config_300001_BUILD/DEFAULT/DEBUG/CONFIG.O    romdata   0x300001    program   0x000001
.config_300002_BUILD/DEFAULT/DEBUG/CONFIG.O    romdata   0x300002    program   0x000001
.config_300003_BUILD/DEFAULT/DEBUG/CONFIG.O    romdata   0x300003    program   0x000001
.config_300004_BUILD/DEFAULT/DEBUG/CONFIG.O    romdata   0x300004    program   0x000001
.config_300005_BUILD/DEFAULT/DEBUG/CONFIG.O    romdata   0x300005    program   0x000001
.config_300006_BUILD/DEFAULT/DEBUG/CONFIG.O    romdata   0x300006    program   0x000001
.config_300008_BUILD/DEFAULT/DEBUG/CONFIG.O    romdata   0x300008    program   0x000001
.config_300009_BUILD/DEFAULT/DEBUG/CONFIG.O    romdata   0x300009    program   0x000001
.config_30000A_BUILD/DEFAULT/DEBUG/CONFIG.O    romdata   0x30000a    program   0x000001
.config_30000B_BUILD/DEFAULT/DEBUG/CONFIG.O    romdata   0x30000b    program   0x000001
.config_30000C_BUILD/DEFAULT/DEBUG/CONFIG.O    romdata   0x30000c    program   0x000001
.config_30000D_BUILD/DEFAULT/DEBUG/CONFIG.O    romdata   0x30000d    program   0x000001
                 acs_main      udata   0x000000       data   0x000044
                  acs_ovr      udata   0x000044       data   0x00000d
                  acs_lcd      udata   0x000051       data   0x000003
                     acs0      udata   0x000054       data   0x000001



                              Program Memory Usage 
                               Start         End      
                           ---------   ---------      
                            0x000000    0x000809      
                            0x300000    0x300006      
                            0x300008    0x30000d      
            2071 out of 132120 program addresses used, program memory utilization is 1%



                              Symbols - Sorted by Name
                     Name    Address   Location    Storage File                     
                ---------  ---------  ---------  --------- ---------                
                 Box_test   0x0005fa    program     extern H:\Desktop\Microprocessor\MicroProject\Main.asm
              Clear_Layer   0x00009c    program     static H:\Desktop\Microprocessor\MicroProject\LCD.asm
             Decrement_dy   0x0006d6    program     extern H:\Desktop\Microprocessor\MicroProject\Main.asm
                 Delay_ms   0x000702    program     extern H:\Desktop\Microprocessor\MicroProject\Main.asm
            Delay_ms_loop   0x000704    program     static H:\Desktop\Microprocessor\MicroProject\Main.asm
               Delay_x4us   0x000710    program     extern H:\Desktop\Microprocessor\MicroProject\Main.asm
             Keypad_Setup   0x00072e    program     extern H:\Desktop\Microprocessor\MicroProject\Keypad.asm
            Keypad_getKey   0x000734    program     extern H:\Desktop\Microprocessor\MicroProject\Keypad.asm
            LCD_DisplayOn   0x000428    program     static H:\Desktop\Microprocessor\MicroProject\LCD.asm
                LCD_GPIOX   0x000436    program     static H:\Desktop\Microprocessor\MicroProject\LCD.asm
       LCD_Initialisation   0x0000ca    program     extern H:\Desktop\Microprocessor\MicroProject\LCD.asm
              LCD_PLLinit   0x000400    program     static H:\Desktop\Microprocessor\MicroProject\LCD.asm
           LCD_PWM1config   0x000444    program     static H:\Desktop\Microprocessor\MicroProject\LCD.asm
              LCD_PWM1out   0x000452    program     static H:\Desktop\Microprocessor\MicroProject\LCD.asm
           LCD_RectHelper   0x000326    program     extern H:\Desktop\Microprocessor\MicroProject\LCD.asm
              LCD_ScrollY   0x000056    program     static H:\Desktop\Microprocessor\MicroProject\LCD.asm
     LCD_ScrollY_layer2_h   0x000084    program     static H:\Desktop\Microprocessor\MicroProject\LCD.asm
     LCD_ScrollY_layer2_l   0x00007c    program     static H:\Desktop\Microprocessor\MicroProject\LCD.asm
      LCD_SetScrollWindow   0x000460    program     static H:\Desktop\Microprocessor\MicroProject\LCD.asm
           LCD_TextHelper   0x00031a    program     static H:\Desktop\Microprocessor\MicroProject\LCD.asm
            LCD_TwoLayers   0x0004ce    program     static H:\Desktop\Microprocessor\MicroProject\LCD.asm
                    LYEN1   0x0004e8    program     static H:\Desktop\Microprocessor\MicroProject\LCD.asm
                    LYEN2   0x0004f6    program     static H:\Desktop\Microprocessor\MicroProject\LCD.asm
                     Main   0x000014    program     static H:\Desktop\Microprocessor\MicroProject\Run.asm
          Main_Initialise   0x000554    program     extern H:\Desktop\Microprocessor\MicroProject\Main.asm
     Main_Initialise_loop   0x000562    program     static H:\Desktop\Microprocessor\MicroProject\Main.asm
           Music_Avengers   0x000782    program     extern H:\Desktop\Microprocessor\MicroProject\Music.asm
              Music_Setup   0x00079c    program     extern H:\Desktop\Microprocessor\MicroProject\Music.asm
                  New_box   0x000570    program     extern H:\Desktop\Microprocessor\MicroProject\Main.asm
            Play_Avengers   0x0007c8    program     extern H:\Desktop\Microprocessor\MicroProject\GameData.asm
               Remove_box   0x0006fa    program     static H:\Desktop\Microprocessor\MicroProject\Main.asm
           SPI_MasterInit   0x000532    program     static H:\Desktop\Microprocessor\MicroProject\LCD.asm
       SPI_MasterTransmit   0x00053a    program     static H:\Desktop\Microprocessor\MicroProject\LCD.asm
             SPI_writeCMD   0x00050e    program     static H:\Desktop\Microprocessor\MicroProject\LCD.asm
            SPI_writeDATA   0x000520    program     static H:\Desktop\Microprocessor\MicroProject\LCD.asm
             SPI_writeREG   0x000504    program     static H:\Desktop\Microprocessor\MicroProject\LCD.asm
                   Scroll   0x00001e    program     extern H:\Desktop\Microprocessor\MicroProject\LCD.asm
               Set_cursor   0x0002e2    program     static H:\Desktop\Microprocessor\MicroProject\LCD.asm
                    Setup   0x000000    program     static H:\Desktop\Microprocessor\MicroProject\Run.asm
       UART_Transmit_Byte   0x0007c0    program     static H:\Desktop\Microprocessor\MicroProject\Music.asm
             Update_score   0x00008c    program     extern H:\Desktop\Microprocessor\MicroProject\LCD.asm
            Wait_Transmit   0x00053c    program     static H:\Desktop\Microprocessor\MicroProject\LCD.asm
                _Run_0018   0x000018    program     static H:\Desktop\Microprocessor\MicroProject\Run.asm
       box_test_add_score   0x000654    program     static H:\Desktop\Microprocessor\MicroProject\Main.asm
            box_test_good   0x0006ca    program     static H:\Desktop\Microprocessor\MicroProject\Main.asm
           box_test_great   0x0006ce    program     static H:\Desktop\Microprocessor\MicroProject\Main.asm
            box_test_loop   0x0005fe    program     static H:\Desktop\Microprocessor\MicroProject\Main.asm
        box_test_next_box   0x0006be    program     static H:\Desktop\Microprocessor\MicroProject\Main.asm
         box_test_perfect   0x0006d2    program     static H:\Desktop\Microprocessor\MicroProject\Main.asm
                      cly   0x00004a    program     static H:\Desktop\Microprocessor\MicroProject\LCD.asm
                converter   0x000544    program     static H:\Desktop\Microprocessor\MicroProject\Main.asm
 decrement_dy_higher_byte   0x0006f0    program     static H:\Desktop\Microprocessor\MicroProject\Main.asm
        decrement_dy_loop   0x0006da    program     static H:\Desktop\Microprocessor\MicroProject\Main.asm
    decrement_dy_next_box   0x0006e4    program     static H:\Desktop\Microprocessor\MicroProject\Main.asm
                    delay   0x000724    program     static H:\Desktop\Microprocessor\MicroProject\Main.asm
               delay_loop   0x000726    program     static H:\Desktop\Microprocessor\MicroProject\Main.asm
                     here   0x000640    program     static H:\Desktop\Microprocessor\MicroProject\Main.asm
                      ly1   0x000050    program     static H:\Desktop\Microprocessor\MicroProject\LCD.asm
             new_box_loop   0x000576    program     static H:\Desktop\Microprocessor\MicroProject\Main.asm
         new_box_next_box   0x0005ea    program     static H:\Desktop\Microprocessor\MicroProject\Main.asm
       new_box_set_colour   0x0005a6    program     static H:\Desktop\Microprocessor\MicroProject\Main.asm
          new_box_set_red   0x0005f6    program     static H:\Desktop\Microprocessor\MicroProject\Main.asm
                     scrl   0x000026    program     static H:\Desktop\Microprocessor\MicroProject\LCD.asm
                    Boxes   0x000000       data     static H:\Desktop\Microprocessor\MicroProject\Main.asm
                Boxes_end   0x000040       data     static H:\Desktop\Microprocessor\MicroProject\Main.asm
                  Control   0x000053       data     static H:\Desktop\Microprocessor\MicroProject\LCD.asm
             Delay_ms_cnt   0x000044       data     static H:\Desktop\Microprocessor\MicroProject\Main.asm
         Delay_x4us_cnt_h   0x000045       data     static H:\Desktop\Microprocessor\MicroProject\Main.asm
         Delay_x4us_cnt_l   0x000046       data     static H:\Desktop\Microprocessor\MicroProject\Main.asm
            Keypad_output   0x000054       data     static H:\Desktop\Microprocessor\MicroProject\Keypad.asm
               Scroll_d_h   0x000052       data     extern H:\Desktop\Microprocessor\MicroProject\LCD.asm
               Scroll_d_l   0x000051       data     extern H:\Desktop\Microprocessor\MicroProject\LCD.asm
              Text_offset   0x000050       data     extern H:\Desktop\Microprocessor\MicroProject\LCD.asm
            Total_score_1   0x000041       data     static H:\Desktop\Microprocessor\MicroProject\Main.asm
            Total_score_2   0x000042       data     static H:\Desktop\Microprocessor\MicroProject\Main.asm
            Total_score_3   0x000043       data     static H:\Desktop\Microprocessor\MicroProject\Main.asm
              current_Box   0x000045       data     static H:\Desktop\Microprocessor\MicroProject\Main.asm
                input_cmd   0x000044       data     static H:\Desktop\Microprocessor\MicroProject\LCD.asm
               input_data   0x000045       data     static H:\Desktop\Microprocessor\MicroProject\LCD.asm
                      key   0x000046       data     static H:\Desktop\Microprocessor\MicroProject\Main.asm
              rect_colour   0x00004e       data     extern H:\Desktop\Microprocessor\MicroProject\LCD.asm
                rect_x1_h   0x000046       data     extern H:\Desktop\Microprocessor\MicroProject\LCD.asm
                rect_x1_l   0x00004a       data     extern H:\Desktop\Microprocessor\MicroProject\LCD.asm
                rect_x2_h   0x000048       data     extern H:\Desktop\Microprocessor\MicroProject\LCD.asm
                rect_x2_l   0x00004c       data     extern H:\Desktop\Microprocessor\MicroProject\LCD.asm
                rect_y1_h   0x000047       data     extern H:\Desktop\Microprocessor\MicroProject\LCD.asm
                rect_y1_l   0x00004b       data     extern H:\Desktop\Microprocessor\MicroProject\LCD.asm
                rect_y2_h   0x000049       data     extern H:\Desktop\Microprocessor\MicroProject\LCD.asm
                rect_y2_l   0x00004d       data     extern H:\Desktop\Microprocessor\MicroProject\LCD.asm
                     tmp1   0x00004f       data     static H:\Desktop\Microprocessor\MicroProject\LCD.asm
                     tmp1   0x000044       data     static H:\Desktop\Microprocessor\MicroProject\Main.asm



                              Symbols - Sorted by Address
                     Name    Address   Location    Storage File                     
                ---------  ---------  ---------  --------- ---------                
                    Setup   0x000000    program     static H:\Desktop\Microprocessor\MicroProject\Run.asm
                     Main   0x000014    program     static H:\Desktop\Microprocessor\MicroProject\Run.asm
                _Run_0018   0x000018    program     static H:\Desktop\Microprocessor\MicroProject\Run.asm
                   Scroll   0x00001e    program     extern H:\Desktop\Microprocessor\MicroProject\LCD.asm
                     scrl   0x000026    program     static H:\Desktop\Microprocessor\MicroProject\LCD.asm
                      cly   0x00004a    program     static H:\Desktop\Microprocessor\MicroProject\LCD.asm
                      ly1   0x000050    program     static H:\Desktop\Microprocessor\MicroProject\LCD.asm
              LCD_ScrollY   0x000056    program     static H:\Desktop\Microprocessor\MicroProject\LCD.asm
     LCD_ScrollY_layer2_l   0x00007c    program     static H:\Desktop\Microprocessor\MicroProject\LCD.asm
     LCD_ScrollY_layer2_h   0x000084    program     static H:\Desktop\Microprocessor\MicroProject\LCD.asm
             Update_score   0x00008c    program     extern H:\Desktop\Microprocessor\MicroProject\LCD.asm
              Clear_Layer   0x00009c    program     static H:\Desktop\Microprocessor\MicroProject\LCD.asm
       LCD_Initialisation   0x0000ca    program     extern H:\Desktop\Microprocessor\MicroProject\LCD.asm
               Set_cursor   0x0002e2    program     static H:\Desktop\Microprocessor\MicroProject\LCD.asm
           LCD_TextHelper   0x00031a    program     static H:\Desktop\Microprocessor\MicroProject\LCD.asm
           LCD_RectHelper   0x000326    program     extern H:\Desktop\Microprocessor\MicroProject\LCD.asm
              LCD_PLLinit   0x000400    program     static H:\Desktop\Microprocessor\MicroProject\LCD.asm
            LCD_DisplayOn   0x000428    program     static H:\Desktop\Microprocessor\MicroProject\LCD.asm
                LCD_GPIOX   0x000436    program     static H:\Desktop\Microprocessor\MicroProject\LCD.asm
           LCD_PWM1config   0x000444    program     static H:\Desktop\Microprocessor\MicroProject\LCD.asm
              LCD_PWM1out   0x000452    program     static H:\Desktop\Microprocessor\MicroProject\LCD.asm
      LCD_SetScrollWindow   0x000460    program     static H:\Desktop\Microprocessor\MicroProject\LCD.asm
            LCD_TwoLayers   0x0004ce    program     static H:\Desktop\Microprocessor\MicroProject\LCD.asm
                    LYEN1   0x0004e8    program     static H:\Desktop\Microprocessor\MicroProject\LCD.asm
                    LYEN2   0x0004f6    program     static H:\Desktop\Microprocessor\MicroProject\LCD.asm
             SPI_writeREG   0x000504    program     static H:\Desktop\Microprocessor\MicroProject\LCD.asm
             SPI_writeCMD   0x00050e    program     static H:\Desktop\Microprocessor\MicroProject\LCD.asm
            SPI_writeDATA   0x000520    program     static H:\Desktop\Microprocessor\MicroProject\LCD.asm
           SPI_MasterInit   0x000532    program     static H:\Desktop\Microprocessor\MicroProject\LCD.asm
       SPI_MasterTransmit   0x00053a    program     static H:\Desktop\Microprocessor\MicroProject\LCD.asm
            Wait_Transmit   0x00053c    program     static H:\Desktop\Microprocessor\MicroProject\LCD.asm
                converter   0x000544    program     static H:\Desktop\Microprocessor\MicroProject\Main.asm
          Main_Initialise   0x000554    program     extern H:\Desktop\Microprocessor\MicroProject\Main.asm
     Main_Initialise_loop   0x000562    program     static H:\Desktop\Microprocessor\MicroProject\Main.asm
                  New_box   0x000570    program     extern H:\Desktop\Microprocessor\MicroProject\Main.asm
             new_box_loop   0x000576    program     static H:\Desktop\Microprocessor\MicroProject\Main.asm
       new_box_set_colour   0x0005a6    program     static H:\Desktop\Microprocessor\MicroProject\Main.asm
         new_box_next_box   0x0005ea    program     static H:\Desktop\Microprocessor\MicroProject\Main.asm
          new_box_set_red   0x0005f6    program     static H:\Desktop\Microprocessor\MicroProject\Main.asm
                 Box_test   0x0005fa    program     extern H:\Desktop\Microprocessor\MicroProject\Main.asm
            box_test_loop   0x0005fe    program     static H:\Desktop\Microprocessor\MicroProject\Main.asm
                     here   0x000640    program     static H:\Desktop\Microprocessor\MicroProject\Main.asm
       box_test_add_score   0x000654    program     static H:\Desktop\Microprocessor\MicroProject\Main.asm
        box_test_next_box   0x0006be    program     static H:\Desktop\Microprocessor\MicroProject\Main.asm
            box_test_good   0x0006ca    program     static H:\Desktop\Microprocessor\MicroProject\Main.asm
           box_test_great   0x0006ce    program     static H:\Desktop\Microprocessor\MicroProject\Main.asm
         box_test_perfect   0x0006d2    program     static H:\Desktop\Microprocessor\MicroProject\Main.asm
             Decrement_dy   0x0006d6    program     extern H:\Desktop\Microprocessor\MicroProject\Main.asm
        decrement_dy_loop   0x0006da    program     static H:\Desktop\Microprocessor\MicroProject\Main.asm
    decrement_dy_next_box   0x0006e4    program     static H:\Desktop\Microprocessor\MicroProject\Main.asm
 decrement_dy_higher_byte   0x0006f0    program     static H:\Desktop\Microprocessor\MicroProject\Main.asm
               Remove_box   0x0006fa    program     static H:\Desktop\Microprocessor\MicroProject\Main.asm
                 Delay_ms   0x000702    program     extern H:\Desktop\Microprocessor\MicroProject\Main.asm
            Delay_ms_loop   0x000704    program     static H:\Desktop\Microprocessor\MicroProject\Main.asm
               Delay_x4us   0x000710    program     extern H:\Desktop\Microprocessor\MicroProject\Main.asm
                    delay   0x000724    program     static H:\Desktop\Microprocessor\MicroProject\Main.asm
               delay_loop   0x000726    program     static H:\Desktop\Microprocessor\MicroProject\Main.asm
             Keypad_Setup   0x00072e    program     extern H:\Desktop\Microprocessor\MicroProject\Keypad.asm
            Keypad_getKey   0x000734    program     extern H:\Desktop\Microprocessor\MicroProject\Keypad.asm
           Music_Avengers   0x000782    program     extern H:\Desktop\Microprocessor\MicroProject\Music.asm
              Music_Setup   0x00079c    program     extern H:\Desktop\Microprocessor\MicroProject\Music.asm
       UART_Transmit_Byte   0x0007c0    program     static H:\Desktop\Microprocessor\MicroProject\Music.asm
            Play_Avengers   0x0007c8    program     extern H:\Desktop\Microprocessor\MicroProject\GameData.asm
                    Boxes   0x000000       data     static H:\Desktop\Microprocessor\MicroProject\Main.asm
                Boxes_end   0x000040       data     static H:\Desktop\Microprocessor\MicroProject\Main.asm
            Total_score_1   0x000041       data     static H:\Desktop\Microprocessor\MicroProject\Main.asm
            Total_score_2   0x000042       data     static H:\Desktop\Microprocessor\MicroProject\Main.asm
            Total_score_3   0x000043       data     static H:\Desktop\Microprocessor\MicroProject\Main.asm
                     tmp1   0x000044       data     static H:\Desktop\Microprocessor\MicroProject\Main.asm
                input_cmd   0x000044       data     static H:\Desktop\Microprocessor\MicroProject\LCD.asm
             Delay_ms_cnt   0x000044       data     static H:\Desktop\Microprocessor\MicroProject\Main.asm
         Delay_x4us_cnt_h   0x000045       data     static H:\Desktop\Microprocessor\MicroProject\Main.asm
              current_Box   0x000045       data     static H:\Desktop\Microprocessor\MicroProject\Main.asm
               input_data   0x000045       data     static H:\Desktop\Microprocessor\MicroProject\LCD.asm
                rect_x1_h   0x000046       data     extern H:\Desktop\Microprocessor\MicroProject\LCD.asm
         Delay_x4us_cnt_l   0x000046       data     static H:\Desktop\Microprocessor\MicroProject\Main.asm
                      key   0x000046       data     static H:\Desktop\Microprocessor\MicroProject\Main.asm
                rect_y1_h   0x000047       data     extern H:\Desktop\Microprocessor\MicroProject\LCD.asm
                rect_x2_h   0x000048       data     extern H:\Desktop\Microprocessor\MicroProject\LCD.asm
                rect_y2_h   0x000049       data     extern H:\Desktop\Microprocessor\MicroProject\LCD.asm
                rect_x1_l   0x00004a       data     extern H:\Desktop\Microprocessor\MicroProject\LCD.asm
                rect_y1_l   0x00004b       data     extern H:\Desktop\Microprocessor\MicroProject\LCD.asm
                rect_x2_l   0x00004c       data     extern H:\Desktop\Microprocessor\MicroProject\LCD.asm
                rect_y2_l   0x00004d       data     extern H:\Desktop\Microprocessor\MicroProject\LCD.asm
              rect_colour   0x00004e       data     extern H:\Desktop\Microprocessor\MicroProject\LCD.asm
                     tmp1   0x00004f       data     static H:\Desktop\Microprocessor\MicroProject\LCD.asm
              Text_offset   0x000050       data     extern H:\Desktop\Microprocessor\MicroProject\LCD.asm
               Scroll_d_l   0x000051       data     extern H:\Desktop\Microprocessor\MicroProject\LCD.asm
               Scroll_d_h   0x000052       data     extern H:\Desktop\Microprocessor\MicroProject\LCD.asm
                  Control   0x000053       data     static H:\Desktop\Microprocessor\MicroProject\LCD.asm
            Keypad_output   0x000054       data     static H:\Desktop\Microprocessor\MicroProject\Keypad.asm


