MPLINK 5.09, LINKER
Linker Map File - Created Thu Nov 14 18:36:44 2019

                                 Section Info
                  Section       Type    Address   Location Size(Bytes)
                ---------  ---------  ---------  ---------  ---------
                     main       code   0x000000    program   0x0000a4
                   .cinit    romdata   0x0000a4    program   0x000002
                      LCD       code   0x0000a6    program   0x0004d6
                 GameData       code   0x00057c    program   0x000272
                   Keypad       code   0x0007ee    program   0x0000a0
                     UART       code   0x00088e    program   0x000034
.config_300000_BUILD/DEFAULT/PRODUCTION/CONFIG.    romdata   0x300000    program   0x000001
.config_300001_BUILD/DEFAULT/PRODUCTION/CONFIG.    romdata   0x300001    program   0x000001
.config_300002_BUILD/DEFAULT/PRODUCTION/CONFIG.    romdata   0x300002    program   0x000001
.config_300003_BUILD/DEFAULT/PRODUCTION/CONFIG.    romdata   0x300003    program   0x000001
.config_300004_BUILD/DEFAULT/PRODUCTION/CONFIG.    romdata   0x300004    program   0x000001
.config_300005_BUILD/DEFAULT/PRODUCTION/CONFIG.    romdata   0x300005    program   0x000001
.config_300006_BUILD/DEFAULT/PRODUCTION/CONFIG.    romdata   0x300006    program   0x000001
.config_300008_BUILD/DEFAULT/PRODUCTION/CONFIG.    romdata   0x300008    program   0x000001
.config_300009_BUILD/DEFAULT/PRODUCTION/CONFIG.    romdata   0x300009    program   0x000001
.config_30000A_BUILD/DEFAULT/PRODUCTION/CONFIG.    romdata   0x30000a    program   0x000001
.config_30000B_BUILD/DEFAULT/PRODUCTION/CONFIG.    romdata   0x30000b    program   0x000001
.config_30000C_BUILD/DEFAULT/PRODUCTION/CONFIG.    romdata   0x30000c    program   0x000001
.config_30000D_BUILD/DEFAULT/PRODUCTION/CONFIG.    romdata   0x30000d    program   0x000001
                     acs0      udata   0x000000       data   0x00001a
                     acs1      udata   0x00001a       data   0x000003



                              Program Memory Usage 
                               Start         End      
                           ---------   ---------      
                            0x000000    0x0008c1      
                            0x300000    0x300006      
                            0x300008    0x30000d      
            2255 out of 132120 program addresses used, program memory utilization is 1%



                              Symbols - Sorted by Name
                     Name    Address   Location    Storage File                     
                ---------  ---------  ---------  --------- ---------                
              Clear_Layer   0x000146    program     static H:\Desktop\Microprocessor\MicroProject\LCD.asm
                  Colour1   0x000112    program     static H:\Desktop\Microprocessor\MicroProject\LCD.asm
                    Delay   0x00009a    program     static H:\Desktop\Microprocessor\MicroProject\Main.asm
                 Delay_ms   0x000078    program     extern H:\Desktop\Microprocessor\MicroProject\Main.asm
               Delay_x4us   0x000086    program     static H:\Desktop\Microprocessor\MicroProject\Main.asm
             Keypad_Setup   0x0007fe    program     extern H:\Desktop\Microprocessor\MicroProject\Keypad.asm
            Keypad_getKey   0x000808    program     extern H:\Desktop\Microprocessor\MicroProject\Keypad.asm
            LCD_DisplayOn   0x0004bc    program     static H:\Desktop\Microprocessor\MicroProject\LCD.asm
                LCD_GPIOX   0x0004ca    program     static H:\Desktop\Microprocessor\MicroProject\LCD.asm
       LCD_Initialisation   0x000348    program     extern H:\Desktop\Microprocessor\MicroProject\LCD.asm
           LCD_LineHelper   0x000282    program     static H:\Desktop\Microprocessor\MicroProject\LCD.asm
              LCD_PLLinit   0x000494    program     static H:\Desktop\Microprocessor\MicroProject\LCD.asm
           LCD_PWM1config   0x0004d8    program     static H:\Desktop\Microprocessor\MicroProject\LCD.asm
              LCD_PWM1out   0x0004e6    program     static H:\Desktop\Microprocessor\MicroProject\LCD.asm
           LCD_RectHelper   0x0001aa    program     static H:\Desktop\Microprocessor\MicroProject\LCD.asm
              LCD_ScrollY   0x000174    program     static H:\Desktop\Microprocessor\MicroProject\LCD.asm
      LCD_SetScrollWindow   0x0004f4    program     static H:\Desktop\Microprocessor\MicroProject\LCD.asm
            LCD_TwoLayers   0x000562    program     static H:\Desktop\Microprocessor\MicroProject\LCD.asm
                    LYEN1   0x0000f6    program     static H:\Desktop\Microprocessor\MicroProject\LCD.asm
                    LYEN2   0x000104    program     static H:\Desktop\Microprocessor\MicroProject\LCD.asm
                 Music_00   0x0008a8    program     extern H:\Desktop\Microprocessor\MicroProject\Music.asm
                  New_Box   0x0000a6    program     extern H:\Desktop\Microprocessor\MicroProject\LCD.asm
                     Play   0x00057c    program     extern H:\Desktop\Microprocessor\MicroProject\GameData.asm
           SPI_MasterInit   0x000066    program     static H:\Desktop\Microprocessor\MicroProject\Main.asm
       SPI_MasterTransmit   0x00006e    program     static H:\Desktop\Microprocessor\MicroProject\Main.asm
             SPI_writeCMD   0x000042    program     static H:\Desktop\Microprocessor\MicroProject\Main.asm
            SPI_writeDATA   0x000054    program     static H:\Desktop\Microprocessor\MicroProject\Main.asm
             SPI_writeREG   0x000038    program     extern H:\Desktop\Microprocessor\MicroProject\Main.asm
                   Scroll   0x000116    program     extern H:\Desktop\Microprocessor\MicroProject\LCD.asm
                SetColour   0x0000ae    program     static H:\Desktop\Microprocessor\MicroProject\LCD.asm
                    Setup   0x000000    program     static H:\Desktop\Microprocessor\MicroProject\Main.asm
               UART_Setup   0x00088e    program     extern H:\Desktop\Microprocessor\MicroProject\Music.asm
       UART_Transmit_Byte   0x0008a0    program     static H:\Desktop\Microprocessor\MicroProject\Music.asm
            Wait_Transmit   0x000070    program     static H:\Desktop\Microprocessor\MicroProject\Main.asm
               _main_0034   0x000034    program     static H:\Desktop\Microprocessor\MicroProject\Main.asm
                      cly   0x00013a    program     static H:\Desktop\Microprocessor\MicroProject\LCD.asm
                  column0   0x000850    program     static H:\Desktop\Microprocessor\MicroProject\Keypad.asm
                  column1   0x00085c    program     static H:\Desktop\Microprocessor\MicroProject\Keypad.asm
                  column2   0x000868    program     static H:\Desktop\Microprocessor\MicroProject\Keypad.asm
                  column3   0x000874    program     static H:\Desktop\Microprocessor\MicroProject\Keypad.asm
                  decoder   0x00087e    program     static H:\Desktop\Microprocessor\MicroProject\Keypad.asm
               get_column   0x000844    program     static H:\Desktop\Microprocessor\MicroProject\Keypad.asm
                 key_fail   0x00088a    program     static H:\Desktop\Microprocessor\MicroProject\Keypad.asm
                      lp1   0x00009c    program     static H:\Desktop\Microprocessor\MicroProject\Main.asm
                      lp2   0x00007a    program     static H:\Desktop\Microprocessor\MicroProject\Main.asm
                      ly1   0x000140    program     static H:\Desktop\Microprocessor\MicroProject\LCD.asm
                     row1   0x000820    program     static H:\Desktop\Microprocessor\MicroProject\Keypad.asm
                     row2   0x00082c    program     static H:\Desktop\Microprocessor\MicroProject\Keypad.asm
                     row3   0x000838    program     static H:\Desktop\Microprocessor\MicroProject\Keypad.asm
                     scrl   0x000120    program     static H:\Desktop\Microprocessor\MicroProject\LCD.asm
                     tmp1   0x00019a    program     static H:\Desktop\Microprocessor\MicroProject\LCD.asm
                     tmp2   0x0001a2    program     static H:\Desktop\Microprocessor\MicroProject\LCD.asm
                      Box   0x000004       data     static H:\Desktop\Microprocessor\MicroProject\LCD.asm
                  Control   0x000018       data     static H:\Desktop\Microprocessor\MicroProject\LCD.asm
              Delay_cnt_h   0x00001b       data     static H:\Desktop\Microprocessor\MicroProject\Main.asm
              Delay_cnt_l   0x00001a       data     static H:\Desktop\Microprocessor\MicroProject\Main.asm
             Delay_cnt_ms   0x00001c       data     static H:\Desktop\Microprocessor\MicroProject\Main.asm
            Keypad_output   0x000001       data     extern H:\Desktop\Microprocessor\MicroProject\Keypad.asm
               Scroll_d_h   0x000017       data     static H:\Desktop\Microprocessor\MicroProject\LCD.asm
               Scroll_d_l   0x000016       data     static H:\Desktop\Microprocessor\MicroProject\LCD.asm
             UART_counter   0x000019       data     static H:\Desktop\Microprocessor\MicroProject\Music.asm
                input_cmd   0x000002       data     extern H:\Desktop\Microprocessor\MicroProject\LCD.asm
               input_data   0x000003       data     extern H:\Desktop\Microprocessor\MicroProject\LCD.asm
                      key   0x000000       data     static H:\Desktop\Microprocessor\MicroProject\Keypad.asm
                line_x1_h   0x00000e       data     static H:\Desktop\Microprocessor\MicroProject\LCD.asm
                line_x1_l   0x000012       data     static H:\Desktop\Microprocessor\MicroProject\LCD.asm
                line_x2_h   0x000010       data     static H:\Desktop\Microprocessor\MicroProject\LCD.asm
                line_x2_l   0x000014       data     static H:\Desktop\Microprocessor\MicroProject\LCD.asm
                line_y1_h   0x00000f       data     static H:\Desktop\Microprocessor\MicroProject\LCD.asm
                line_y1_l   0x000013       data     static H:\Desktop\Microprocessor\MicroProject\LCD.asm
                line_y2_h   0x000011       data     static H:\Desktop\Microprocessor\MicroProject\LCD.asm
                line_y2_l   0x000015       data     static H:\Desktop\Microprocessor\MicroProject\LCD.asm
              rect_colour   0x00000d       data     static H:\Desktop\Microprocessor\MicroProject\LCD.asm
                rect_x1_h   0x000005       data     static H:\Desktop\Microprocessor\MicroProject\LCD.asm
                rect_x1_l   0x000009       data     static H:\Desktop\Microprocessor\MicroProject\LCD.asm
                rect_x2_h   0x000007       data     static H:\Desktop\Microprocessor\MicroProject\LCD.asm
                rect_x2_l   0x00000b       data     static H:\Desktop\Microprocessor\MicroProject\LCD.asm
                rect_y1_h   0x000006       data     static H:\Desktop\Microprocessor\MicroProject\LCD.asm
                rect_y1_l   0x00000a       data     static H:\Desktop\Microprocessor\MicroProject\LCD.asm
                rect_y2_h   0x000008       data     static H:\Desktop\Microprocessor\MicroProject\LCD.asm
                rect_y2_l   0x00000c       data     static H:\Desktop\Microprocessor\MicroProject\LCD.asm



                              Symbols - Sorted by Address
                     Name    Address   Location    Storage File                     
                ---------  ---------  ---------  --------- ---------                
                    Setup   0x000000    program     static H:\Desktop\Microprocessor\MicroProject\Main.asm
               _main_0034   0x000034    program     static H:\Desktop\Microprocessor\MicroProject\Main.asm
             SPI_writeREG   0x000038    program     extern H:\Desktop\Microprocessor\MicroProject\Main.asm
             SPI_writeCMD   0x000042    program     static H:\Desktop\Microprocessor\MicroProject\Main.asm
            SPI_writeDATA   0x000054    program     static H:\Desktop\Microprocessor\MicroProject\Main.asm
           SPI_MasterInit   0x000066    program     static H:\Desktop\Microprocessor\MicroProject\Main.asm
       SPI_MasterTransmit   0x00006e    program     static H:\Desktop\Microprocessor\MicroProject\Main.asm
            Wait_Transmit   0x000070    program     static H:\Desktop\Microprocessor\MicroProject\Main.asm
                 Delay_ms   0x000078    program     extern H:\Desktop\Microprocessor\MicroProject\Main.asm
                      lp2   0x00007a    program     static H:\Desktop\Microprocessor\MicroProject\Main.asm
               Delay_x4us   0x000086    program     static H:\Desktop\Microprocessor\MicroProject\Main.asm
                    Delay   0x00009a    program     static H:\Desktop\Microprocessor\MicroProject\Main.asm
                      lp1   0x00009c    program     static H:\Desktop\Microprocessor\MicroProject\Main.asm
                  New_Box   0x0000a6    program     extern H:\Desktop\Microprocessor\MicroProject\LCD.asm
                SetColour   0x0000ae    program     static H:\Desktop\Microprocessor\MicroProject\LCD.asm
                    LYEN1   0x0000f6    program     static H:\Desktop\Microprocessor\MicroProject\LCD.asm
                    LYEN2   0x000104    program     static H:\Desktop\Microprocessor\MicroProject\LCD.asm
                  Colour1   0x000112    program     static H:\Desktop\Microprocessor\MicroProject\LCD.asm
                   Scroll   0x000116    program     extern H:\Desktop\Microprocessor\MicroProject\LCD.asm
                     scrl   0x000120    program     static H:\Desktop\Microprocessor\MicroProject\LCD.asm
                      cly   0x00013a    program     static H:\Desktop\Microprocessor\MicroProject\LCD.asm
                      ly1   0x000140    program     static H:\Desktop\Microprocessor\MicroProject\LCD.asm
              Clear_Layer   0x000146    program     static H:\Desktop\Microprocessor\MicroProject\LCD.asm
              LCD_ScrollY   0x000174    program     static H:\Desktop\Microprocessor\MicroProject\LCD.asm
                     tmp1   0x00019a    program     static H:\Desktop\Microprocessor\MicroProject\LCD.asm
                     tmp2   0x0001a2    program     static H:\Desktop\Microprocessor\MicroProject\LCD.asm
           LCD_RectHelper   0x0001aa    program     static H:\Desktop\Microprocessor\MicroProject\LCD.asm
           LCD_LineHelper   0x000282    program     static H:\Desktop\Microprocessor\MicroProject\LCD.asm
       LCD_Initialisation   0x000348    program     extern H:\Desktop\Microprocessor\MicroProject\LCD.asm
              LCD_PLLinit   0x000494    program     static H:\Desktop\Microprocessor\MicroProject\LCD.asm
            LCD_DisplayOn   0x0004bc    program     static H:\Desktop\Microprocessor\MicroProject\LCD.asm
                LCD_GPIOX   0x0004ca    program     static H:\Desktop\Microprocessor\MicroProject\LCD.asm
           LCD_PWM1config   0x0004d8    program     static H:\Desktop\Microprocessor\MicroProject\LCD.asm
              LCD_PWM1out   0x0004e6    program     static H:\Desktop\Microprocessor\MicroProject\LCD.asm
      LCD_SetScrollWindow   0x0004f4    program     static H:\Desktop\Microprocessor\MicroProject\LCD.asm
            LCD_TwoLayers   0x000562    program     static H:\Desktop\Microprocessor\MicroProject\LCD.asm
                     Play   0x00057c    program     extern H:\Desktop\Microprocessor\MicroProject\GameData.asm
             Keypad_Setup   0x0007fe    program     extern H:\Desktop\Microprocessor\MicroProject\Keypad.asm
            Keypad_getKey   0x000808    program     extern H:\Desktop\Microprocessor\MicroProject\Keypad.asm
                     row1   0x000820    program     static H:\Desktop\Microprocessor\MicroProject\Keypad.asm
                     row2   0x00082c    program     static H:\Desktop\Microprocessor\MicroProject\Keypad.asm
                     row3   0x000838    program     static H:\Desktop\Microprocessor\MicroProject\Keypad.asm
               get_column   0x000844    program     static H:\Desktop\Microprocessor\MicroProject\Keypad.asm
                  column0   0x000850    program     static H:\Desktop\Microprocessor\MicroProject\Keypad.asm
                  column1   0x00085c    program     static H:\Desktop\Microprocessor\MicroProject\Keypad.asm
                  column2   0x000868    program     static H:\Desktop\Microprocessor\MicroProject\Keypad.asm
                  column3   0x000874    program     static H:\Desktop\Microprocessor\MicroProject\Keypad.asm
                  decoder   0x00087e    program     static H:\Desktop\Microprocessor\MicroProject\Keypad.asm
                 key_fail   0x00088a    program     static H:\Desktop\Microprocessor\MicroProject\Keypad.asm
               UART_Setup   0x00088e    program     extern H:\Desktop\Microprocessor\MicroProject\Music.asm
       UART_Transmit_Byte   0x0008a0    program     static H:\Desktop\Microprocessor\MicroProject\Music.asm
                 Music_00   0x0008a8    program     extern H:\Desktop\Microprocessor\MicroProject\Music.asm
                      key   0x000000       data     static H:\Desktop\Microprocessor\MicroProject\Keypad.asm
            Keypad_output   0x000001       data     extern H:\Desktop\Microprocessor\MicroProject\Keypad.asm
                input_cmd   0x000002       data     extern H:\Desktop\Microprocessor\MicroProject\LCD.asm
               input_data   0x000003       data     extern H:\Desktop\Microprocessor\MicroProject\LCD.asm
                      Box   0x000004       data     static H:\Desktop\Microprocessor\MicroProject\LCD.asm
                rect_x1_h   0x000005       data     static H:\Desktop\Microprocessor\MicroProject\LCD.asm
                rect_y1_h   0x000006       data     static H:\Desktop\Microprocessor\MicroProject\LCD.asm
                rect_x2_h   0x000007       data     static H:\Desktop\Microprocessor\MicroProject\LCD.asm
                rect_y2_h   0x000008       data     static H:\Desktop\Microprocessor\MicroProject\LCD.asm
                rect_x1_l   0x000009       data     static H:\Desktop\Microprocessor\MicroProject\LCD.asm
                rect_y1_l   0x00000a       data     static H:\Desktop\Microprocessor\MicroProject\LCD.asm
                rect_x2_l   0x00000b       data     static H:\Desktop\Microprocessor\MicroProject\LCD.asm
                rect_y2_l   0x00000c       data     static H:\Desktop\Microprocessor\MicroProject\LCD.asm
              rect_colour   0x00000d       data     static H:\Desktop\Microprocessor\MicroProject\LCD.asm
                line_x1_h   0x00000e       data     static H:\Desktop\Microprocessor\MicroProject\LCD.asm
                line_y1_h   0x00000f       data     static H:\Desktop\Microprocessor\MicroProject\LCD.asm
                line_x2_h   0x000010       data     static H:\Desktop\Microprocessor\MicroProject\LCD.asm
                line_y2_h   0x000011       data     static H:\Desktop\Microprocessor\MicroProject\LCD.asm
                line_x1_l   0x000012       data     static H:\Desktop\Microprocessor\MicroProject\LCD.asm
                line_y1_l   0x000013       data     static H:\Desktop\Microprocessor\MicroProject\LCD.asm
                line_x2_l   0x000014       data     static H:\Desktop\Microprocessor\MicroProject\LCD.asm
                line_y2_l   0x000015       data     static H:\Desktop\Microprocessor\MicroProject\LCD.asm
               Scroll_d_l   0x000016       data     static H:\Desktop\Microprocessor\MicroProject\LCD.asm
               Scroll_d_h   0x000017       data     static H:\Desktop\Microprocessor\MicroProject\LCD.asm
                  Control   0x000018       data     static H:\Desktop\Microprocessor\MicroProject\LCD.asm
             UART_counter   0x000019       data     static H:\Desktop\Microprocessor\MicroProject\Music.asm
              Delay_cnt_l   0x00001a       data     static H:\Desktop\Microprocessor\MicroProject\Main.asm
              Delay_cnt_h   0x00001b       data     static H:\Desktop\Microprocessor\MicroProject\Main.asm
             Delay_cnt_ms   0x00001c       data     static H:\Desktop\Microprocessor\MicroProject\Main.asm


