MPASM 5.81                           LCD.ASM   11-14-2019  18:36:41         PAGE  1


LOC  OBJECT CODE     LINE SOURCE TEXT
  VALUE

                      00001 #include p18f87k22.inc
                      00001         LIST
                      00002 
                      00003 ;==========================================================================
                      00004 ; Build date : Jul 23 2018
                      00005 ;  MPASM PIC18F87K22 processor include
                      00006 ; 
                      00007 ;  (c) Copyright 1999-2018 Microchip Technology, All rights reserved
                      00008 ;==========================================================================
                      00009 
                      02986         LIST
                      00002     
  0000                00003     global LCD_Initialisation, input_cmd, input_data, New_Box, Scroll
  0000                00004     extern Delay_ms, SPI_writeREG, Keypad_getKey, Keypad_output
                      00005 
                      00006 ;Data sheet definition (register array, pin, constant)
                      00007 ; Colors (RGB565)
                      00008 #define RA8875_BLACK            0x0000 ;< Black Color
                      00009 #define RA8875_BLUE             0x001F ;< Blue Color
                      00010 #define RA8875_RED              0xF800 ;< Red Color
                      00011 #define RA8875_GREEN            0x07E0 ;< Green Color
                      00012 #define RA8875_CYAN             0x07FF ;< Cyan Color
                      00013 #define RA8875_MAGENTA          0xF81F ;< Magenta Color
                      00014 #define RA8875_YELLOW           0xFFE0 ;< Yellow Color
                      00015 #define RA8875_WHITE            0xFFFF ;< White Color
                      00016 
                      00017 ; Command/Data pins for SPI
                      00018 #define RA8875_DATAWRITE        0x00
                      00019 #define RA8875_DATAREAD         0x40
                      00020 #define RA8875_CMDWRITE         0x80
                      00021 #define RA8875_CMDREAD          0xC0
                      00022 
                      00023 ; Registers & bits
                      00024 #define RA8875_PWRR             0x01
                      00025 #define RA8875_PWRR_DISPON      0x80
                      00026 #define RA8875_PWRR_DISPOFF     0x00
                      00027 #define RA8875_PWRR_SLEEP       0x02
                      00028 #define RA8875_PWRR_NORMAL      0x00
                      00029 #define RA8875_PWRR_SOFTRESET   0x01
                      00030 
                      00031 #define RA8875_MRWC             0x02
                      00032 
                      00033 #define RA8875_GPIOX            0xC7
                      00034 
                      00035 #define RA8875_PLLC1            0x88
                      00036 #define RA8875_PLLC1_PLLDIV2    0x80
                      00037 #define RA8875_PLLC1_PLLDIV1    0x00
                      00038 
                      00039 #define RA8875_PLLC2            0x89
                      00040 #define RA8875_PLLC2_DIV1       0x00
                      00041 #define RA8875_PLLC2_DIV2       0x01
                      00042 #define RA8875_PLLC2_DIV4       0x02
                      00043 #define RA8875_PLLC2_DIV8       0x03
MPASM 5.81                           LCD.ASM   11-14-2019  18:36:41         PAGE  2


LOC  OBJECT CODE     LINE SOURCE TEXT
  VALUE

                      00044 #define RA8875_PLLC2_DIV16      0x04
                      00045 #define RA8875_PLLC2_DIV32      0x05
                      00046 #define RA8875_PLLC2_DIV64      0x06
                      00047 #define RA8875_PLLC2_DIV128     0x07
                      00048 
                      00049 #define RA8875_SYSR             0x10
                      00050 #define RA8875_SYSR_8BPP        0x00
                      00051 #define RA8875_SYSR_16BPP       0x0C
                      00052 #define RA8875_SYSR_MCU8        0x00
                      00053 #define RA8875_SYSR_MCU16       0x03
                      00054 
                      00055 #define RA8875_PCSR             0x04
                      00056 #define RA8875_PCSR_PDATR       0x00
                      00057 #define RA8875_PCSR_PDATL       0x80
                      00058 #define RA8875_PCSR_CLK         0x00
                      00059 #define RA8875_PCSR_2CLK        0x01
                      00060 #define RA8875_PCSR_4CLK        0x02
                      00061 #define RA8875_PCSR_8CLK        0x03
                      00062 
                      00063 #define RA8875_HDWR             0x14
                      00064 
                      00065 #define RA8875_HNDFTR           0x15
                      00066 #define RA8875_HNDFTR_DE_HIGH   0x00
                      00067 #define RA8875_HNDFTR_DE_LOW    0x80
                      00068 
                      00069 #define RA8875_HNDR             0x16
                      00070 #define RA8875_HSTR             0x17
                      00071 #define RA8875_HPWR             0x18
                      00072 #define RA8875_HPWR_LOW         0x00
                      00073 #define RA8875_HPWR_HIGH        0x80
                      00074 
                      00075 #define RA8875_VDHR0            0x19
                      00076 #define RA8875_VDHR1            0x1A
                      00077 #define RA8875_VNDR0            0x1B
                      00078 #define RA8875_VNDR1            0x1C
                      00079 #define RA8875_VSTR0            0x1D
                      00080 #define RA8875_VSTR1            0x1E
                      00081 #define RA8875_VPWR             0x1F
                      00082 #define RA8875_VPWR_LOW         0x00
                      00083 #define RA8875_VPWR_HIGH        0x80
                      00084 
                      00085 #define RA8875_HSAW0            0x30
                      00086 #define RA8875_HSAW1            0x31
                      00087 #define RA8875_VSAW0            0x32
                      00088 #define RA8875_VSAW1            0x33
                      00089 
                      00090 #define RA8875_HEAW0            0x34
                      00091 #define RA8875_HEAW1            0x35
                      00092 #define RA8875_VEAW0            0x36
                      00093 #define RA8875_VEAW1            0x37
                      00094 
                      00095 #define RA8875_MCLR             0x8E
                      00096 #define RA8875_MCLR_START       0x80
MPASM 5.81                           LCD.ASM   11-14-2019  18:36:41         PAGE  3


LOC  OBJECT CODE     LINE SOURCE TEXT
  VALUE

                      00097 #define RA8875_MCLR_STOP        0x00
                      00098 #define RA8875_MCLR_READSTATUS  0x80
                      00099 #define RA8875_MCLR_FULL        0x00
                      00100 #define RA8875_MCLR_ACTIVE      0x40
                      00101 
                      00102 #define RA8875_DCR                    0x90
                      00103 #define RA8875_DCR_LINESQUTRI_START   0x80
                      00104 #define RA8875_DCR_LINESQUTRI_STOP    0x00
                      00105 #define RA8875_DCR_LINESQUTRI_STATUS  0x80
                      00106 #define RA8875_DCR_CIRCLE_START       0x40
                      00107 #define RA8875_DCR_CIRCLE_STATUS      0x40
                      00108 #define RA8875_DCR_CIRCLE_STOP        0x00
                      00109 #define RA8875_DCR_FILL               0x20
                      00110 #define RA8875_DCR_NOFILL             0x00
                      00111 #define RA8875_DCR_DRAWLINE           0x00
                      00112 #define RA8875_DCR_DRAWTRIANGLE       0x01
                      00113 #define RA8875_DCR_DRAWSQUARE         0x10
                      00114 
                      00115 #define RA8875_ELLIPSE                0xA0
                      00116 #define RA8875_ELLIPSE_STATUS         0x80
                      00117 
                      00118 #define RA8875_MWCR0            0x40
                      00119 #define RA8875_MWCR0_GFXMODE    0x00
                      00120 #define RA8875_MWCR0_TXTMODE    0x80
                      00121 #define RA8875_MWCR0_CURSOR     0x40
                      00122 #define RA8875_MWCR0_BLINK      0x20
                      00123 
                      00124 #define RA8875_MWCR0_DIRMASK    0x0C ;< Bitmask for Write Direction
                      00125 #define RA8875_MWCR0_LRTD       0x00 ;< Left->Right then Top->Down
                      00126 #define RA8875_MWCR0_RLTD       0x04 ;< Right->Left then Top->Down
                      00127 #define RA8875_MWCR0_TDLR       0x08 ;< Top->Down then Left->Right
                      00128 #define RA8875_MWCR0_DTLR       0x0C ;< Down->Top then Left->Right
                      00129 
                      00130 #define RA8875_BTCR             0x44
                      00131 #define RA8875_CURH0            0x46
                      00132 #define RA8875_CURH1            0x47
                      00133 #define RA8875_CURV0            0x48
                      00134 #define RA8875_CURV1            0x49
                      00135 
                      00136 #define RA8875_P1CR             0x8A
                      00137 #define RA8875_P1CR_ENABLE      0x80
                      00138 #define RA8875_P1CR_DISABLE     0x00
                      00139 #define RA8875_P1CR_CLKOUT      0x10
                      00140 #define RA8875_P1CR_PWMOUT      0x00
                      00141 
                      00142 #define RA8875_P1DCR            0x8B
                      00143 
                      00144 #define RA8875_P2CR             0x8C
                      00145 #define RA8875_P2CR_ENABLE      0x80
                      00146 #define RA8875_P2CR_DISABLE     0x00
                      00147 #define RA8875_P2CR_CLKOUT      0x10
                      00148 #define RA8875_P2CR_PWMOUT      0x00
                      00149 
MPASM 5.81                           LCD.ASM   11-14-2019  18:36:41         PAGE  4


LOC  OBJECT CODE     LINE SOURCE TEXT
  VALUE

                      00150 #define RA8875_P2DCR            0x8D
                      00151 
                      00152 #define RA8875_PWM_CLK_DIV1     0x00
                      00153 #define RA8875_PWM_CLK_DIV2     0x01
                      00154 #define RA8875_PWM_CLK_DIV4     0x02
                      00155 #define RA8875_PWM_CLK_DIV8     0x03
                      00156 #define RA8875_PWM_CLK_DIV16    0x04
                      00157 #define RA8875_PWM_CLK_DIV32    0x05
                      00158 #define RA8875_PWM_CLK_DIV64    0x06
                      00159 #define RA8875_PWM_CLK_DIV128   0x07
                      00160 #define RA8875_PWM_CLK_DIV256   0x08
                      00161 #define RA8875_PWM_CLK_DIV512   0x09
                      00162 #define RA8875_PWM_CLK_DIV1024  0x0A
                      00163 #define RA8875_PWM_CLK_DIV2048  0x0B
                      00164 #define RA8875_PWM_CLK_DIV4096  0x0C
                      00165 #define RA8875_PWM_CLK_DIV8192  0x0D
                      00166 #define RA8875_PWM_CLK_DIV16384 0x0E
                      00167 #define RA8875_PWM_CLK_DIV32768 0x0F
                      00168 
                      00169 #define RA8875_TPCR0                  0x70
                      00170 #define RA8875_TPCR0_ENABLE           0x80
                      00171 #define RA8875_TPCR0_DISABLE          0x00
                      00172 #define RA8875_TPCR0_WAIT_512CLK      0x00
                      00173 #define RA8875_TPCR0_WAIT_1024CLK     0x10
                      00174 #define RA8875_TPCR0_WAIT_2048CLK     0x20
                      00175 #define RA8875_TPCR0_WAIT_4096CLK     0x30
                      00176 #define RA8875_TPCR0_WAIT_8192CLK     0x40
                      00177 #define RA8875_TPCR0_WAIT_16384CLK    0x50
                      00178 #define RA8875_TPCR0_WAIT_32768CLK    0x60
                      00179 #define RA8875_TPCR0_WAIT_65536CLK    0x70
                      00180 #define RA8875_TPCR0_WAKEENABLE       0x08
                      00181 #define RA8875_TPCR0_WAKEDISABLE      0x00
                      00182 #define RA8875_TPCR0_ADCCLK_DIV1      0x00
                      00183 #define RA8875_TPCR0_ADCCLK_DIV2      0x01
                      00184 #define RA8875_TPCR0_ADCCLK_DIV4      0x02
                      00185 #define RA8875_TPCR0_ADCCLK_DIV8      0x03
                      00186 #define RA8875_TPCR0_ADCCLK_DIV16     0x04
                      00187 #define RA8875_TPCR0_ADCCLK_DIV32     0x05
                      00188 #define RA8875_TPCR0_ADCCLK_DIV64     0x06
                      00189 #define RA8875_TPCR0_ADCCLK_DIV128    0x07
                      00190 
                      00191 #define RA8875_TPCR1            0x71
                      00192 #define RA8875_TPCR1_AUTO       0x00
                      00193 #define RA8875_TPCR1_MANUAL     0x40
                      00194 #define RA8875_TPCR1_VREFINT    0x00
                      00195 #define RA8875_TPCR1_VREFEXT    0x20
                      00196 #define RA8875_TPCR1_DEBOUNCE   0x04
                      00197 #define RA8875_TPCR1_NODEBOUNCE 0x00
                      00198 #define RA8875_TPCR1_IDLE       0x00
                      00199 #define RA8875_TPCR1_WAIT       0x01
                      00200 #define RA8875_TPCR1_LATCHX     0x02
                      00201 #define RA8875_TPCR1_LATCHY     0x03
                      00202 
MPASM 5.81                           LCD.ASM   11-14-2019  18:36:41         PAGE  5


LOC  OBJECT CODE     LINE SOURCE TEXT
  VALUE

                      00203 #define RA8875_TPXH             0x72
                      00204 #define RA8875_TPYH             0x73
                      00205 #define RA8875_TPXYL            0x74
                      00206 
                      00207 #define RA8875_INTC1            0xF0
                      00208 #define RA8875_INTC1_KEY        0x10
                      00209 #define RA8875_INTC1_DMA        0x08
                      00210 #define RA8875_INTC1_TP         0x04
                      00211 #define RA8875_INTC1_BTE        0x02
                      00212 
                      00213 #define RA8875_INTC2            0xF1
                      00214 #define RA8875_INTC2_KEY        0x10
                      00215 #define RA8875_INTC2_DMA        0x08
                      00216 #define RA8875_INTC2_TP         0x04
                      00217 #define RA8875_INTC2_BTE        0x02
                      00218 
                      00219 #define RA8875_SCROLL_BOTH      0x00
                      00220 #define RA8875_SCROLL_LAYER1    0x40
                      00221 #define RA8875_SCROLL_LAYER2    0x80
                      00222 #define RA8875_SCROLL_BUFFER    0xC0
                      00223     
                      00224 ;pre-defined constants
                      00225 #define LCD_width               800
                      00226 #define LCD_height              480
                      00227     
                      00228 #define  pixclk         (RA8875_PCSR_PDATL | RA8875_PCSR_2CLK);
                      00229 #define  hsync_start            .32;
                      00230 #define  hsync_pw               .96;
                      00231 #define  hsync_finetune         .0;
                      00232 #define  hsync_nondisp          .26;
                      00233 #define  vsync_pw               .2;
                      00234 #define  vsync_nondisp          .32;
                      00235 #define  vsync_start            .23;
                      00236 #define  _voffset               .0;    
                      00237 
                      00238 #define box_xstart              .10
                      00239 #define box_ystart              .20
                      00240 #define box_width               .80
                      00241 #define box_height              .10
                      00242 #define box_xoffset             .100
                      00243 #define box_yoffset             .50
                      00244     
                      00245 #define scroll_yend_l           .144
                      00246 #define scroll_yend_h           .1
                      00247     
                      00248 #define scroll_speed            .2
                      00249 
                      00250 ;register 'Box' bit location
                      00251 #define Box_x1      0
                      00252 #define Box_x2      1
                      00253 #define Box_x3      2
                      00254 #define Box_y1      3
                      00255 #define Box_y2      4
MPASM 5.81                           LCD.ASM   11-14-2019  18:36:41         PAGE  6


LOC  OBJECT CODE     LINE SOURCE TEXT
  VALUE

                      00256 #define Box_y3      5
                      00257 #define Box_colour  6
                      00258 
                      00259 #define LYEN 0  ; 0: layer 1 active, 1: layer 2 active
                      00260 
                      00261 acs0    udata_acs   ; reserve data space in access ram
000000                00262 input_cmd           res 1
000001                00263 input_data          res 1
                      00264             
000002                00265 Box                 res 1
000003                00266 rect_x1_h           res 1
000004                00267 rect_y1_h           res 1
000005                00268 rect_x2_h           res 1
000006                00269 rect_y2_h           res 1
000007                00270 rect_x1_l           res 1
000008                00271 rect_y1_l           res 1
000009                00272 rect_x2_l           res 1
00000A                00273 rect_y2_l           res 1
00000B                00274 rect_colour         res 1
                      00275             
00000C                00276 line_x1_h           res 1
00000D                00277 line_y1_h           res 1
00000E                00278 line_x2_h           res 1
00000F                00279 line_y2_h           res 1
000010                00280 line_x1_l           res 1
000011                00281 line_y1_l           res 1
000012                00282 line_x2_l           res 1
000013                00283 line_y2_l           res 1
                      00284             
000014                00285 Scroll_d_l          res 1
000015                00286 Scroll_d_h          res 1
                      00287             
000016                00288 Control             res 1
                      00289                     
                      00290 LCD     code
                      00291 
                      00292 ;Create new box
000000                00293 New_Box
000000 6E??           00294     movwf   Box
                      00295     
                      00296     ;set colour
000002 AC??           00297     btfss   Box, Box_colour             ;Box[7]
000004 D???           00298     bra     Colour1                     ;red
000006 0EC0           00299     movlw   b'11000000'                 ;blue
000008                00300 SetColour
000008 6E??           00301     movwf   rect_colour
                      00302     
                      00303     ;set x position
00000A 0E07           00304     movlw   b'111'
00000C 14??           00305     andwf   Box, W                      ;Box[0:2]
00000E 0D64           00306     mullw   box_xoffset
000010 0E0A           00307     movlw   box_xstart
000012 24F3           00308     addwf   PRODL, W
MPASM 5.81                           LCD.ASM   11-14-2019  18:36:41         PAGE  7


LOC  OBJECT CODE     LINE SOURCE TEXT
  VALUE

000014 6E??           00309     movwf   rect_x1_l
000016 6E??           00310     movwf   rect_x2_l
000018 0E00           00311     movlw   .0
00001A 20F4           00312     addwfc  PRODH, W
00001C 6E??           00313     movwf   rect_x1_h
00001E 6E??           00314     movwf   rect_x2_h
                      00315     
000020 0E50           00316     movlw   box_width
000022 26??           00317     addwf   rect_x2_l
000024 0E00           00318     movlw   .0
000026 22??           00319     addwfc  rect_x2_h
                      00320     
                      00321     ;set y position
000028 42??           00322     rrncf   Box, F
00002A 42??           00323     rrncf   Box, F
00002C 40??           00324     rrncf   Box, W
00002E 0B07           00325     andlw   b'111'                      ;Box[3:5]                       
000030 0D32           00326     mullw   box_yoffset
000032 0E14           00327     movlw   box_ystart
000034 24F3           00328     addwf   PRODL, W
000036 6E??           00329     movwf   rect_y1_l
000038 6E??           00330     movwf   rect_y2_l
00003A 0E00           00331     movlw   .0
00003C 20F4           00332     addwfc  PRODH, W
00003E 6E??           00333     movwf   rect_y1_h
000040 6E??           00334     movwf   rect_y2_h
                      00335     
000042 0E0A           00336     movlw   box_height
000044 26??           00337     addwf   rect_y2_l
000046 0E00           00338     movlw   .0
000048 22??           00339     addwfc  rect_y2_h
                      00340     
00004A EC?? F???      00341     call    LCD_RectHelper
00004E 0012           00342     return
                      00343 
                      00344 ;temporary subroutine
000050                00345 LYEN1
000050 0E41           00346     movlw   0x41
000052 6E??           00347     movwf   input_cmd
000054 0E00           00348     movlw   .0                          ;layer 1
000056 6E??           00349     movwf   input_data
000058 EC?? F???      00350     call    SPI_writeREG
00005C 0012           00351     return
                      00352     
00005E                00353 LYEN2
00005E 0E41           00354     movlw   0x41
000060 6E??           00355     movwf   input_cmd
000062 0E01           00356     movlw   .1                          ;layer 2
000064 6E??           00357     movwf   input_data
000066 EC?? F???      00358     call    SPI_writeREG
00006A 0012           00359     return
                      00360     
00006C                00361 Colour1
MPASM 5.81                           LCD.ASM   11-14-2019  18:36:41         PAGE  8


LOC  OBJECT CODE     LINE SOURCE TEXT
  VALUE

00006C 0E07           00362     movlw   b'00000111'
00006E D???           00363     bra     SetColour
                      00364     
                      00365 ;Scroll next layer
000070                00366 Scroll
000070 0E90           00367     movlw   scroll_yend_l
000072 6E??           00368     movwf   Scroll_d_l
000074 0E01           00369     movlw   scroll_yend_h
000076 6E??           00370     movwf   Scroll_d_h
000078 0E00           00371     movlw   0x00                ; W=0   
00007A                00372 scrl
00007A EC?? F???      00373     call    LCD_ScrollY
00007E 0E02           00374     movlw   scroll_speed
000080 EC?? F???      00375     call    Delay_ms
000084 06??           00376     decf    Scroll_d_l, F       ; borrow when 0x00 -> 0xff
000086 5A??           00377     subwfb  Scroll_d_h, F       ; no carry when 0x00 -> 0xff
                      00378     ;call    test_keypad
000088 E2??           00379     bc      scrl
                      00380     
00008A 70??           00381     btg     Control, LYEN
00008C A0??           00382     btfss   Control, LYEN
00008E D???           00383     bra     ly1
000090 EC?? F???      00384     call    LYEN2
000094 EC?? F???      00385 cly call    Clear_Layer
000098 0012           00386     return
                      00387 
                      00388 ;temporary subroutine
00009A EC?? F???      00389 ly1 call    LYEN1
00009E D???           00390     bra     cly
                      00391 
0000A0                00392 Clear_Layer
0000A0 0E00           00393     movlw   .0
0000A2 6E??           00394     movwf   rect_x1_l
0000A4 0E00           00395     movlw   .0
0000A6 6E??           00396     movwf   rect_x1_h
0000A8 0E00           00397     movlw   .0
0000AA 6E??           00398     movwf   rect_y1_l
0000AC 0E00           00399     movlw   .0
0000AE 6E??           00400     movwf   rect_y1_h
0000B0 0E1F           00401     movlw   .31
0000B2 6E??           00402     movwf   rect_x2_l
0000B4 0E03           00403     movlw   .3
0000B6 6E??           00404     movwf   rect_x2_h
0000B8 0E90           00405     movlw   scroll_yend_l
0000BA 6E??           00406     movwf   rect_y2_l
0000BC 0E01           00407     movlw   scroll_yend_h
0000BE 6E??           00408     movwf   rect_y2_h
0000C0 6A??           00409     clrf    rect_colour
0000C2 EC?? F???      00410     call    LCD_RectHelper
0000C6 0E05           00411     movlw   .5
0000C8 EC?? F???      00412     call    Delay_ms
0000CC 0012           00413     return
                      00414 
MPASM 5.81                           LCD.ASM   11-14-2019  18:36:41         PAGE  9


LOC  OBJECT CODE     LINE SOURCE TEXT
  VALUE

                      00415     
0000CE                00416 LCD_ScrollY  
0000CE 0E26           00417     movlw   0x26
0000D0 6E??           00418     movwf   input_cmd
0000D2 C??? F???      00419     movff   Scroll_d_l, input_data
0000D6 B0??           00420     btfsc   Control, LYEN
0000D8 EC?? F???      00421     call    tmp1
0000DC EC?? F???      00422     call    SPI_writeREG
0000E0 0E27           00423     movlw   0x27
0000E2 6E??           00424     movwf   input_cmd
0000E4 C??? F???      00425     movff   Scroll_d_h, input_data
0000E8 B0??           00426     btfsc   Control, LYEN
0000EA EC?? F???      00427     call    tmp2
0000EE EC?? F???      00428     call    SPI_writeREG
0000F2 0012           00429     return
                      00430     
0000F4                00431 tmp1
0000F4 0E90           00432     movlw   scroll_yend_l
0000F6 24??           00433     addwf   Scroll_d_l, W
0000F8 6E??           00434     movwf   input_data
0000FA 0012           00435     return
                      00436     
0000FC                00437 tmp2
0000FC 0E01           00438     movlw   scroll_yend_h
0000FE 20??           00439     addwfc  Scroll_d_h, W
000100 6E??           00440     movwf   input_data
000102 0012           00441     return
                      00442 
                      00443     
                      00444 ;;;;;;;;;;;;;;;;;;;;;;;;;;;;;;;;;;;;;;;;;;;;;;;;;;;;;;;;;;;
000104                00445 LCD_RectHelper
                      00446     ;/* Set X1 */
000104 0E91           00447     movlw   0x91
000106 6E??           00448     movwf   input_cmd
000108 C??? F???      00449     movff   rect_x1_l, input_data
00010C EC?? F???      00450     call    SPI_writeREG
000110 0E92           00451     movlw   0x92
000112 6E??           00452     movwf   input_cmd
000114 C??? F???      00453     movff   rect_x1_h, input_data
000118 EC?? F???      00454     call    SPI_writeREG
                      00455     
                      00456     ;/* Set Y1 */
00011C 0E93           00457     movlw   0x93
00011E 6E??           00458     movwf   input_cmd
000120 C??? F???      00459     movff   rect_y1_l, input_data
000124 EC?? F???      00460     call    SPI_writeREG
000128 0E94           00461     movlw   0x94
00012A 6E??           00462     movwf   input_cmd
00012C C??? F???      00463     movff   rect_y1_h, input_data
000130 EC?? F???      00464     call    SPI_writeREG
                      00465 
                      00466     ;/* Set X2 */
000134 0E95           00467     movlw   0x95
MPASM 5.81                           LCD.ASM   11-14-2019  18:36:41         PAGE 10


LOC  OBJECT CODE     LINE SOURCE TEXT
  VALUE

000136 6E??           00468     movwf   input_cmd
000138 C??? F???      00469     movff   rect_x2_l, input_data
00013C EC?? F???      00470     call    SPI_writeREG
000140 0E96           00471     movlw   0x96
000142 6E??           00472     movwf   input_cmd
000144 C??? F???      00473     movff   rect_x2_h, input_data
000148 EC?? F???      00474     call    SPI_writeREG
                      00475 
                      00476     ;/* Set Y2 */
00014C 0E97           00477     movlw   0x97
00014E 6E??           00478     movwf   input_cmd
000150 C??? F???      00479     movff   rect_y2_l, input_data
000154 EC?? F???      00480     call    SPI_writeREG
000158 0E98           00481     movlw   0x98
00015A 6E??           00482     movwf   input_cmd
00015C C??? F???      00483     movff   rect_y2_h, input_data
000160 EC?? F???      00484     call    SPI_writeREG
                      00485     
                      00486     ;/* Set r1 */
000164 0EA1           00487     movlw   0xA1
000166 6E??           00488     movwf   input_cmd
000168 0E05           00489     movlw   .5
00016A 6E??           00490     movwf   input_data
00016C EC?? F???      00491     call    SPI_writeREG
000170 0EA2           00492     movlw   0xA2
000172 6E??           00493     movwf   input_cmd
000174 0E00           00494     movlw   .0
000176 6E??           00495     movwf   input_data
000178 EC?? F???      00496     call    SPI_writeREG
                      00497     
                      00498     ;/* Set r2 */
00017C 0EA3           00499     movlw   0xA3
00017E 6E??           00500     movwf   input_cmd
000180 0E05           00501     movlw   .5
000182 6E??           00502     movwf   input_data
000184 EC?? F???      00503     call    SPI_writeREG
000188 0EA4           00504     movlw   0xA4
00018A 6E??           00505     movwf   input_cmd
00018C 0E00           00506     movlw   .0
00018E 6E??           00507     movwf   input_data
000190 EC?? F???      00508     call    SPI_writeREG
                      00509 
                      00510     ;/* Set Color */
000194 0E63           00511     movlw   0x63
000196 6E??           00512     movwf   input_cmd
000198 0E07           00513     movlw   b'111'
00019A 14??           00514     andwf   rect_colour, W
00019C 6E??           00515     movwf   input_data
00019E EC?? F???      00516     call    SPI_writeREG
0001A2 0E64           00517     movlw   0x64                
0001A4 6E??           00518     movwf   input_cmd
0001A6 42??           00519     rrncf   rect_colour, F
0001A8 42??           00520     rrncf   rect_colour, F
MPASM 5.81                           LCD.ASM   11-14-2019  18:36:41         PAGE 11


LOC  OBJECT CODE     LINE SOURCE TEXT
  VALUE

0001AA 42??           00521     rrncf   rect_colour, F
0001AC 0E07           00522     movlw   b'111'
0001AE 14??           00523     andwf   rect_colour, W
0001B0 6E??           00524     movwf   input_data
0001B2 EC?? F???      00525     call    SPI_writeREG
0001B6 0E65           00526     movlw   0x65
0001B8 6E??           00527     movwf   input_cmd
0001BA 42??           00528     rrncf   rect_colour, F
0001BC 42??           00529     rrncf   rect_colour, F
0001BE 0E03           00530     movlw   b'11'
0001C0 14??           00531     andwf   rect_colour, W
0001C2 6E??           00532     movwf   input_data
0001C4 EC?? F???      00533     call    SPI_writeREG
                      00534 
                      00535     ;/* Draw! */
0001C8 0EA0           00536     movlw   RA8875_ELLIPSE
0001CA 6E??           00537     movwf   input_cmd
0001CC 0EE0           00538     movlw   0xE0                    ;0xE0 for fill
0001CE 6E??           00539     movwf   input_data
0001D0 EC?? F???      00540     call    SPI_writeREG
                      00541 
                      00542     ;/* Wait for the command to finish */
0001D4 0E01           00543     movlw   .1
0001D6 EC?? F???      00544     call    Delay_ms
0001DA 0012           00545     return
                      00546     
                      00547 
0001DC                00548 LCD_LineHelper
                      00549     ;/* Set X1 */
0001DC 0E91           00550     movlw   0x91
0001DE 6E??           00551     movwf   input_cmd
0001E0 0E00           00552     movlw   .0
0001E2 6E??           00553     movwf   input_data
0001E4 C??? F???      00554     movff   line_x1_l, input_data
0001E8 EC?? F???      00555     call    SPI_writeREG
0001EC 0E92           00556     movlw   0x92
0001EE 6E??           00557     movwf   input_cmd
0001F0 0E00           00558     movlw   .0
0001F2 6E??           00559     movwf   input_data
0001F4 C??? F???      00560     movff   line_x1_h, input_data
0001F8 6E??           00561     movwf   input_data
0001FA EC?? F???      00562     call    SPI_writeREG
                      00563     
                      00564     ;/* Set Y1 */
0001FE 0E93           00565     movlw   0x93
000200 6E??           00566     movwf   input_cmd
000202 0E00           00567     movlw   .0
000204 6E??           00568     movwf   input_data
000206 C??? F???      00569     movff   line_y1_l, input_data
00020A 6E??           00570     movwf   input_data
00020C EC?? F???      00571     call    SPI_writeREG
000210 0E94           00572     movlw   0x94
000212 6E??           00573     movwf   input_cmd
MPASM 5.81                           LCD.ASM   11-14-2019  18:36:41         PAGE 12


LOC  OBJECT CODE     LINE SOURCE TEXT
  VALUE

000214 0E00           00574     movlw   .0
000216 6E??           00575     movwf   input_data
000218 C??? F???      00576     movff   line_y1_h, input_data
00021C 6E??           00577     movwf   input_data
00021E EC?? F???      00578     call    SPI_writeREG
                      00579 
                      00580     ;/* Set X2 */
000222 0E95           00581     movlw   0x95
000224 6E??           00582     movwf   input_cmd
000226 0E1F           00583     movlw   .31
000228 6E??           00584     movwf   input_data
00022A C??? F???      00585     movff   line_x2_l, input_data
00022E 6E??           00586     movwf   input_data
000230 EC?? F???      00587     call    SPI_writeREG
000234 0E96           00588     movlw   0x96
000236 6E??           00589     movwf   input_cmd
000238 0E03           00590     movlw   .3
00023A 6E??           00591     movwf   input_data
00023C C??? F???      00592     movff   line_x2_h, input_data
000240 6E??           00593     movwf   input_data
000242 EC?? F???      00594     call    SPI_writeREG
                      00595 
                      00596     ;/* Set Y2 */
000246 0E97           00597     movlw   0x97
000248 6E??           00598     movwf   input_cmd
00024A 0EDF           00599     movlw   .223
00024C 6E??           00600     movwf   input_data
00024E C??? F???      00601     movff   line_y2_l, input_data
000252 6E??           00602     movwf   input_data
000254 EC?? F???      00603     call    SPI_writeREG
000258 0E98           00604     movlw   0x98
00025A 6E??           00605     movwf   input_cmd
00025C 0E01           00606     movlw   .1
00025E 6E??           00607     movwf   input_data
000260 C??? F???      00608     movff   line_y2_h, input_data
000264 6E??           00609     movwf   input_data
000266 EC?? F???      00610     call    SPI_writeREG
                      00611     
                      00612     ;/* Set Color */
00026A 0E63           00613     movlw   0x63
00026C 6E??           00614     movwf   input_cmd
00026E 0E07           00615     movlw   .7          ;0~7
000270 6E??           00616     movwf   input_data
000272 EC?? F???      00617     call    SPI_writeREG
000276 0E64           00618     movlw   0x64                
000278 6E??           00619     movwf   input_cmd
00027A 0E07           00620     movlw   .7          ;0~7
00027C 6E??           00621     movwf   input_data
00027E EC?? F???      00622     call    SPI_writeREG
000282 0E65           00623     movlw   0x65
000284 6E??           00624     movwf   input_cmd
000286 0E03           00625     movlw   .3          ;0~3
000288 6E??           00626     movwf   input_data
MPASM 5.81                           LCD.ASM   11-14-2019  18:36:41         PAGE 13


LOC  OBJECT CODE     LINE SOURCE TEXT
  VALUE

00028A EC?? F???      00627     call    SPI_writeREG
                      00628 
                      00629     ;/* Draw! */
00028E 0E90           00630     movlw   RA8875_DCR
000290 6E??           00631     movwf   input_cmd
000292 0E80           00632     movlw   0x80
000294 6E??           00633     movwf   input_data
000296 EC?? F???      00634     call    SPI_writeREG
                      00635     
                      00636     ;/* Wait for the command to finish */
00029A 0E01           00637     movlw   .1
00029C EC?? F???      00638     call    Delay_ms
0002A0 0012           00639     return
                      00640     
0002A2                00641 LCD_Initialisation
0002A2 EC?? F???      00642     call    LCD_PLLinit
                      00643     
0002A6 0E10           00644     movlw   RA8875_SYSR
0002A8 6E??           00645     movwf   input_cmd
0002AA 0E0C           00646     movlw   (RA8875_SYSR_16BPP | RA8875_SYSR_MCU8)
0002AC 6E??           00647     movwf   input_data
0002AE EC?? F???      00648     call    SPI_writeREG
                      00649 
0002B2 0E04           00650     movlw   RA8875_PCSR
0002B4 6E??           00651     movwf   input_cmd
0002B6 0E81           00652     movlw   pixclk
0002B8 6E??           00653     movwf   input_data
0002BA EC?? F???      00654     call    SPI_writeREG
0002BE 0E01           00655     movlw   .1
0002C0 EC?? F???      00656     call    Delay_ms
                      00657     
                      00658     ; Horizontal settings registers 
0002C4 0E14           00659     movlw   RA8875_HDWR
0002C6 6E??           00660     movwf   input_cmd
0002C8 0E63           00661     movlw   .99                                         ;(LCD_width / 8) - 1)
0002CA 6E??           00662     movwf   input_data
0002CC EC?? F???      00663     call    SPI_writeREG
0002D0 0E15           00664     movlw   RA8875_HNDFTR
0002D2 6E??           00665     movwf   input_cmd
0002D4 0E00           00666     movlw   RA8875_HNDFTR_DE_HIGH
0002D6 6E??           00667     movwf   input_data
0002D8 EC?? F???      00668     call    SPI_writeREG
0002DC 0E16           00669     movlw   RA8875_HNDR
0002DE 6E??           00670     movwf   input_cmd
0002E0 0E03           00671     movlw   .3              ;  (hsync_nondisp - hsync_finetune - 2)/8)
0002E2 6E??           00672     movwf   input_data
0002E4 EC?? F???      00673     call    SPI_writeREG
0002E8 0E17           00674     movlw   RA8875_HSTR
0002EA 6E??           00675     movwf   input_cmd
0002EC 0E03           00676     movlw   .3;  hsync_start/8 - 1)
0002EE 6E??           00677     movwf   input_data
0002F0 EC?? F???      00678     call    SPI_writeREG
0002F4 0E18           00679     movlw   RA8875_HPWR
MPASM 5.81                           LCD.ASM   11-14-2019  18:36:41         PAGE 14


LOC  OBJECT CODE     LINE SOURCE TEXT
  VALUE

0002F6 6E??           00680     movwf   input_cmd
0002F8 0E0B           00681     movlw   .11;  RA8875_HPWR_LOW + (hsync_pw/8 - 1))
0002FA 6E??           00682     movwf   input_data
0002FC EC?? F???      00683     call    SPI_writeREG
                      00684 
                      00685     ; Vertical settings registers ;
000300 0E19           00686     movlw   RA8875_VDHR0
000302 6E??           00687     movwf   input_cmd
000304 0EDF           00688     movlw   .223;(LCD_height - 1 + _voffset) & 0xFF
000306 6E??           00689     movwf   input_data
000308 EC?? F???      00690     call    SPI_writeREG
00030C 0E1A           00691     movlw   RA8875_VDHR1
00030E 6E??           00692     movwf   input_cmd
000310 0E01           00693     movlw   .1;  (uint16_t)(LCD_height - 1 + _voffset) >> 8);
000312 6E??           00694     movwf   input_data
000314 EC?? F???      00695     call    SPI_writeREG
000318 0E1B           00696     movlw   RA8875_VNDR0
00031A 6E??           00697     movwf   input_cmd
00031C 0E1F           00698     movlw   .31;  vsync_nondisp-1);                          
00031E 6E??           00699     movwf   input_data
000320 EC?? F???      00700     call    SPI_writeREG
000324 0E1C           00701     movlw   RA8875_VNDR1
000326 6E??           00702     movwf   input_cmd
000328 0E00           00703     movlw   .0; vsync_nondisp >> 8);
00032A 6E??           00704     movwf   input_data
00032C EC?? F???      00705     call    SPI_writeREG
000330 0E1D           00706     movlw   RA8875_VSTR0
000332 6E??           00707     movwf   input_cmd
000334 0E16           00708     movlw   .22;  vsync_start-1);                            ; Vsync start position = VSTR + 1
000336 6E??           00709     movwf   input_data
000338 EC?? F???      00710     call    SPI_writeREG
00033C 0E1E           00711     movlw   RA8875_VSTR1
00033E 6E??           00712     movwf   input_cmd
000340 0E00           00713     movlw   .0;  vsync_start >> 8);
000342 6E??           00714     movwf   input_data
000344 EC?? F???      00715     call    SPI_writeREG
000348 0E1F           00716     movlw   RA8875_VPWR
00034A 6E??           00717     movwf   input_cmd
00034C 0E01           00718     movlw   .1;  RA8875_VPWR_LOW + vsync_pw - 1);            ; Vsync pulse width = VPWR + 1
00034E 6E??           00719     movwf   input_data
000350 EC?? F???      00720     call    SPI_writeREG
                      00721 
                      00722     ; Set active window X ;
000354 0E30           00723     movlw   RA8875_HSAW0
000356 6E??           00724     movwf   input_cmd
000358 0E00           00725     movlw   .0; ; horizontal start point
00035A 6E??           00726     movwf   input_data
00035C EC?? F???      00727     call    SPI_writeREG
000360 0E31           00728     movlw   RA8875_HSAW1
000362 6E??           00729     movwf   input_cmd
000364 0E00           00730     movlw   .0;
000366 6E??           00731     movwf   input_data
000368 EC?? F???      00732     call    SPI_writeREG
MPASM 5.81                           LCD.ASM   11-14-2019  18:36:41         PAGE 15


LOC  OBJECT CODE     LINE SOURCE TEXT
  VALUE

00036C 0E34           00733     movlw   RA8875_HEAW0
00036E 6E??           00734     movwf   input_cmd
000370 0E1F           00735     movlw   .31;(LCD_width - 1) & 0xFF);            ; horizontal end point
000372 6E??           00736     movwf   input_data
000374 EC?? F???      00737     call    SPI_writeREG
000378 0E35           00738     movlw   RA8875_HEAW1
00037A 6E??           00739     movwf   input_cmd
00037C 0E03           00740     movlw   .3;  (uint16_t)(LCD_width - 1) >> 8);
00037E 6E??           00741     movwf   input_data
000380 EC?? F???      00742     call    SPI_writeREG
                      00743 
                      00744     ; Set active window Y ;
000384 0E32           00745     movlw   RA8875_VSAW0
000386 6E??           00746     movwf   input_cmd
000388 0E00           00747     movlw   .0;  0 + _voffset);                              ; vertical start point
00038A 6E??           00748     movwf   input_data
00038C EC?? F???      00749     call    SPI_writeREG
000390 0E33           00750     movlw   RA8875_VSAW1
000392 6E??           00751     movwf   input_cmd
000394 0E00           00752     movlw   .0;  0 + _voffset);
000396 0E36           00753     movlw   RA8875_VEAW0
000398 6E??           00754     movwf   input_cmd
00039A 0EDF           00755     movlw   .223;  (uint16_t)(LCD_height - 1 + _voffset) & 0xFF); ; vertical end point
00039C 6E??           00756     movwf   input_data
00039E EC?? F???      00757     call    SPI_writeREG
0003A2 0E37           00758     movlw   RA8875_VEAW1
0003A4 6E??           00759     movwf   input_cmd
0003A6 0E01           00760     movlw   .1;  (uint16_t)(LCD_height - 1 + _voffset) >> 8);
0003A8 6E??           00761     movwf   input_data
0003AA EC?? F???      00762     call    SPI_writeREG
                      00763 
                      00764     ; Clear the entire window
0003AE 0E8E           00765     movlw   RA8875_MCLR
0003B0 6E??           00766     movwf   input_cmd
0003B2 0EC0           00767     movlw   b'11000000';
0003B4 6E??           00768     movwf   input_data
0003B6 EC?? F???      00769     call    SPI_writeREG
0003BA 0EFA           00770     movlw   .250
0003BC EC?? F???      00771     call    Delay_ms
0003C0 0EFA           00772     movlw   .250
0003C2 EC?? F???      00773     call    Delay_ms
                      00774     
0003C6 EC?? F???      00775     call    LCD_DisplayOn
0003CA EC?? F???      00776     call    LCD_GPIOX           ;// Enable TFT - display enable tied to GPIOX
0003CE EC?? F???      00777     call    LCD_PWM1config      ; // PWM output for backlight
0003D2 EC?? F???      00778     call    LCD_PWM1out
0003D6 EC?? F???      00779     call    LCD_SetScrollWindow
0003DA EC?? F???      00780     call    LCD_TwoLayers
                      00781     
0003DE 90??           00782     bcf     Control, LYEN
0003E0 EC?? F???      00783     call    LYEN2
0003E4 EC?? F???      00784     call    Clear_Layer
0003E8 EC?? F???      00785     call    LYEN1
MPASM 5.81                           LCD.ASM   11-14-2019  18:36:41         PAGE 16


LOC  OBJECT CODE     LINE SOURCE TEXT
  VALUE

0003EC 0012           00786     return
                      00787     
0003EE                00788 LCD_PLLinit
0003EE 0E88           00789     movlw   RA8875_PLLC1
0003F0 6E??           00790     movwf   input_cmd
0003F2 0E00           00791     movlw   RA8875_PLLC1_PLLDIV1
0003F4 0F0B           00792     addlw   .11
0003F6 6E??           00793     movwf   input_data
0003F8 EC?? F???      00794     call    SPI_writeREG
0003FC 0E01           00795     movlw   .1
0003FE EC?? F???      00796     call    Delay_ms
                      00797    
000402 0E89           00798     movlw   RA8875_PLLC2
000404 6E??           00799     movwf   input_cmd
000406 0E02           00800     movlw   RA8875_PLLC2_DIV4
000408 6E??           00801     movwf   input_data
00040A EC?? F???      00802     call    SPI_writeREG
00040E 0E01           00803     movlw   .1
000410 EC?? F???      00804     call    Delay_ms
000414 0012           00805     return
                      00806 
000416                00807 LCD_DisplayOn
000416 0E01           00808     movlw   RA8875_PWRR
000418 6E??           00809     movwf   input_cmd
00041A 0E80           00810     movlw   (RA8875_PWRR_NORMAL | RA8875_PWRR_DISPON);;
00041C 6E??           00811     movwf   input_data
00041E EC?? F???      00812     call    SPI_writeREG
000422 0012           00813     return
                      00814 
000424                00815 LCD_GPIOX
000424 0EC7           00816     movlw   RA8875_GPIOX
000426 6E??           00817     movwf   input_cmd
000428 0E01           00818     movlw   .1
00042A 6E??           00819     movwf   input_data
00042C EC?? F???      00820     call    SPI_writeREG
000430 0012           00821     return
                      00822     
000432                00823 LCD_PWM1config
000432 0E8A           00824     movlw   RA8875_P1CR
000434 6E??           00825     movwf   input_cmd
000436 0E8A           00826     movlw   (RA8875_P1CR_ENABLE | (RA8875_PWM_CLK_DIV1024 & 0xF))
000438 6E??           00827     movwf   input_data
00043A EC?? F???      00828     call    SPI_writeREG
00043E 0012           00829     return
                      00830     
000440                00831 LCD_PWM1out
000440 0E8B           00832     movlw   RA8875_P1DCR
000442 6E??           00833     movwf   input_cmd
000444 0EFF           00834     movlw   .255
000446 6E??           00835     movwf   input_data
000448 EC?? F???      00836     call    SPI_writeREG
00044C 0012           00837     return
                      00838 
MPASM 5.81                           LCD.ASM   11-14-2019  18:36:41         PAGE 17


LOC  OBJECT CODE     LINE SOURCE TEXT
  VALUE

00044E                00839 LCD_SetScrollWindow
                      00840     ;// Horizontal Start point of Scroll Window
00044E 0E38           00841     movlw   0x38
000450 6E??           00842     movwf   input_cmd
000452 0E00           00843     movlw   .0
000454 6E??           00844     movwf   input_data
000456 EC?? F???      00845     call    SPI_writeREG
00045A 0E39           00846     movlw   0x39
00045C 6E??           00847     movwf   input_cmd
00045E 0E00           00848     movlw   .0
000460 6E??           00849     movwf   input_data
000462 EC?? F???      00850     call    SPI_writeREG
                      00851    
                      00852     ;// Vertical Start Point of Scroll Window
000466 0E3A           00853     movlw   0x3A
000468 6E??           00854     movwf   input_cmd
00046A 0E00           00855     movlw   .0
00046C 6E??           00856     movwf   input_data
00046E EC?? F???      00857     call    SPI_writeREG
000472 0E3B           00858     movlw   0x3B
000474 6E??           00859     movwf   input_cmd
000476 0E00           00860     movlw   .0
000478 6E??           00861     movwf   input_data
00047A EC?? F???      00862     call    SPI_writeREG
                      00863     
                      00864     ;// Horizontal End Point of Scroll Window
00047E 0E3C           00865     movlw   0x3C
000480 6E??           00866     movwf   input_cmd
000482 0E1F           00867     movlw   .31
000484 6E??           00868     movwf   input_data
000486 EC?? F???      00869     call    SPI_writeREG
00048A 0E3D           00870     movlw   0x3D
00048C 6E??           00871     movwf   input_cmd
00048E 0E03           00872     movlw   .3
000490 6E??           00873     movwf   input_data
000492 EC?? F???      00874     call    SPI_writeREG
                      00875     
                      00876     ;// Vertical End Point of Scroll Window
000496 0E3E           00877     movlw   0x3E
000498 6E??           00878     movwf   input_cmd
00049A 0E90           00879     movlw   scroll_yend_l
00049C 6E??           00880     movwf   input_data
00049E EC?? F???      00881     call    SPI_writeREG
0004A2 0E3F           00882     movlw   0x3F
0004A4 6E??           00883     movwf   input_cmd
0004A6 0E01           00884     movlw   scroll_yend_h
0004A8 6E??           00885     movwf   input_data
0004AA EC?? F???      00886     call    SPI_writeREG
                      00887 
                      00888     ;// Scroll function setting
0004AE 0E52           00889     movlw   0x52
0004B0 6E??           00890     movwf   input_cmd
0004B2 0EC0           00891     movlw   b'11000000'             ;buffer scroll[7:6] : b'11'
MPASM 5.81                           LCD.ASM   11-14-2019  18:36:41         PAGE 18


LOC  OBJECT CODE     LINE SOURCE TEXT
  VALUE

0004B4 6E??           00892     movwf   input_data
0004B6 EC?? F???      00893     call    SPI_writeREG
0004BA 0012           00894     return 
                      00895     
0004BC                00896 LCD_TwoLayers
0004BC 0E20           00897     movlw   0x20
0004BE 6E??           00898     movwf   input_cmd
0004C0 0E80           00899     movlw   b'10000000'             ;two layer mode[7] : b'1'
0004C2 6E??           00900     movwf   input_data
0004C4 EC?? F???      00901     call    SPI_writeREG
0004C8 0E40           00902     movlw   0x40
0004CA 6E??           00903     movwf   input_cmd               ;text mode[7] : b'1'
0004CC 0E80           00904     movlw   b'10000000'
0004CE 6E??           00905     movwf   input_data
0004D0 EC?? F???      00906     call    SPI_writeREG
0004D4 0012           00907     return
                      00908     end
MPASM 5.81                           LCD.ASM   11-14-2019  18:36:41         PAGE 19


SYMBOL TABLE
  LABEL                             VALUE 

A                                 00000000
A16                               00000000
A17                               00000001
A18                               00000002
A19                               00000003
ABDEN                             00000000
ABDOVF                            00000007
ACCESS                            00000000
ACKDT                             00000005
ACKEN                             00000004
ACKSTAT                           00000006
ACQT0                             00000003
ACQT1                             00000004
ACQT2                             00000005
AD0                               00000000
AD1                               00000001
AD10                              00000002
AD11                              00000003
AD12                              00000004
AD13                              00000005
AD14                              00000006
AD15                              00000007
AD2                               00000002
AD3                               00000003
AD4                               00000004
AD5                               00000005
AD6                               00000006
AD7                               00000007
AD8                               00000000
AD9                               00000001
ADCMD                             00000000
ADCON0                            00000FC2
ADCON1                            00000FC1
ADCON2                            00000FC0
ADCS0                             00000000
ADCS1                             00000001
ADCS2                             00000002
ADDEN                             00000003
ADDEN1                            00000003
ADDEN2                            00000003
ADEN                              00000003
ADFM                              00000007
ADIE                              00000006
ADIF                              00000006
ADIP                              00000006
ADMSK1                            00000001
ADMSK2                            00000002
ADMSK3                            00000003
ADMSK4                            00000004
ADMSK5                            00000005
ADON                              00000000
ADRES                             00000FC3
ADRESH                            00000FC4
MPASM 5.81                           LCD.ASM   11-14-2019  18:36:41         PAGE 20


SYMBOL TABLE
  LABEL                             VALUE 

ADRESL                            00000FC3
ALE                               00000000
ALRMCFG                           00000F5B
ALRMEN                            00000007
ALRMPTR0                          00000000
ALRMPTR1                          00000001
ALRMRPT                           00000F5A
ALRMVAL                           00000F58
ALRMVALH                          00000F59
ALRMVALL                          00000F58
AMASK0                            00000002
AMASK1                            00000003
AMASK2                            00000004
AMASK3                            00000005
AN0                               00000000
AN1                               00000001
AN10                              00000005
AN11                              00000006
AN12                              00000004
AN13                              00000005
AN14                              00000006
AN15                              00000007
AN16                              00000004
AN17                              00000003
AN18                              00000002
AN19                              00000001
AN2                               00000002
AN20                              00000003
AN21                              00000002
AN22                              00000001
AN23                              00000000
AN3                               00000003
AN4                               00000005
AN5                               00000007
AN6                               00000001
AN7                               00000002
AN8                               00000003
AN9                               00000004
ANCON0                            00000F25
ANCON1                            00000F24
ANCON2                            00000F23
ANSEL0                            00000000
ANSEL1                            00000001
ANSEL10                           00000002
ANSEL11                           00000003
ANSEL12                           00000004
ANSEL13                           00000005
ANSEL14                           00000006
ANSEL15                           00000007
ANSEL16                           00000000
ANSEL17                           00000001
ANSEL18                           00000002
ANSEL19                           00000003
MPASM 5.81                           LCD.ASM   11-14-2019  18:36:41         PAGE 21


SYMBOL TABLE
  LABEL                             VALUE 

ANSEL2                            00000002
ANSEL20                           00000004
ANSEL21                           00000005
ANSEL22                           00000006
ANSEL23                           00000007
ANSEL3                            00000003
ANSEL4                            00000004
ANSEL5                            00000005
ANSEL6                            00000006
ANSEL7                            00000007
ANSEL8                            00000000
ANSEL9                            00000001
ARPT0                             00000000
ARPT1                             00000001
ARPT2                             00000002
ARPT3                             00000003
ARPT4                             00000004
ARPT5                             00000005
ARPT6                             00000006
ARPT7                             00000007
BA0                               00000004
BANKED                            00000001
BAUDCON                           00000F65
BAUDCON1                          00000F65
BAUDCON2                          00000F20
BAUDCTL                           00000F65
BCL1IE                            00000003
BCL1IF                            00000003
BCL1IP                            00000003
BCL2IE                            00000004
BCL2IF                            00000004
BCL2IP                            00000004
BCLIE                             00000003
BCLIF                             00000003
BCLIP                             00000003
BF                                00000000
BGVST                             00000006
BOR                               00000000
BRG16                             00000003
BRGH                              00000002
BRGH1                             00000002
BRGH2                             00000002
BSR                               00000FE0
Box                               00000002
Box_colour                        6
Box_x1                            0
Box_x2                            1
Box_x3                            2
Box_y1                            3
Box_y2                            4
Box_y3                            5
C                                 00000000
C10TSEL0                          00000004
MPASM 5.81                           LCD.ASM   11-14-2019  18:36:41         PAGE 22


SYMBOL TABLE
  LABEL                             VALUE 

C1INA                             00000006
C1INB                             00000005
C1INC                             00000006
C1OUT                             00000002
C1TSEL0                           00000000
C1TSEL1                           00000001
C1TSEL2                           00000002
C2INA                             00000004
C2INB                             00000003
C2INC                             00000004
C2IND                             00000005
C2OUT                             00000001
C2TSEL0                           00000003
C2TSEL1                           00000004
C2TSEL2                           00000005
C3INA                             00000002
C3INB                             00000003
C3INC                             00000004
C3OUT                             00000001
C3TSEL0                           00000006
C3TSEL1                           00000007
C4TSEL0                           00000000
C4TSEL1                           00000001
C5TSEL0                           00000002
C6TSEL0                           00000004
C7TSEL0                           00000006
C7TSEL1                           00000007
C8TSEL0                           00000000
C8TSEL1                           00000001
C9TSEL0                           00000002
CAL0                              00000000
CAL1                              00000001
CAL2                              00000002
CAL3                              00000003
CAL4                              00000004
CAL5                              00000005
CAL6                              00000006
CAL7                              00000007
CCH0                              00000000
CCH1                              00000001
CCP1                              00000002
CCP10                             00000002
CCP10CON                          00000F40
CCP10IE                           00000007
CCP10IF                           00000007
CCP10IP                           00000007
CCP10M0                           00000000
CCP10M1                           00000001
CCP10M2                           00000002
CCP10M3                           00000003
CCP10MD                           00000007
CCP10OD                           00000007
CCP10X                            00000005
MPASM 5.81                           LCD.ASM   11-14-2019  18:36:41         PAGE 23


SYMBOL TABLE
  LABEL                             VALUE 

CCP10Y                            00000004
CCP1CON                           00000FBB
CCP1IE                            00000001
CCP1IF                            00000001
CCP1IP                            00000001
CCP1M0                            00000000
CCP1M1                            00000001
CCP1M2                            00000002
CCP1M3                            00000003
CCP1MD                            00000005
CCP1OD                            00000005
CCP1X                             00000005
CCP1Y                             00000004
CCP2CON                           00000F4E
CCP2IE                            00000002
CCP2IF                            00000002
CCP2IP                            00000002
CCP2M0                            00000000
CCP2M1                            00000001
CCP2M2                            00000002
CCP2M3                            00000003
CCP2MD                            00000006
CCP2OD                            00000006
CCP2X                             00000005
CCP2Y                             00000004
CCP2_P2A                          00000003
CCP2_PORTC                        00000001
CCP2_PORTE                        00000007
CCP3                              00000000
CCP3CON                           00000F49
CCP3IE                            00000000
CCP3IF                            00000000
CCP3IP                            00000000
CCP3M0                            00000000
CCP3M1                            00000001
CCP3M2                            00000002
CCP3M3                            00000003
CCP3MD                            00000007
CCP3OD                            00000000
CCP4                              00000003
CCP4CON                           00000F77
CCP4IE                            00000001
CCP4IF                            00000001
CCP4IP                            00000001
CCP4M0                            00000000
CCP4M1                            00000001
CCP4M2                            00000002
CCP4M3                            00000003
CCP4MD                            00000001
CCP4OD                            00000001
CCP4X                             00000005
CCP4Y                             00000004
CCP5                              00000004
MPASM 5.81                           LCD.ASM   11-14-2019  18:36:41         PAGE 24


SYMBOL TABLE
  LABEL                             VALUE 

CCP5CON                           00000F74
CCP5IE                            00000002
CCP5IF                            00000002
CCP5IP                            00000002
CCP5M0                            00000000
CCP5M1                            00000001
CCP5M2                            00000002
CCP5M3                            00000003
CCP5MD                            00000002
CCP5OD                            00000002
CCP5X                             00000005
CCP5Y                             00000004
CCP6CON                           00000F71
CCP6IE                            00000003
CCP6IF                            00000003
CCP6IP                            00000003
CCP6M0                            00000000
CCP6M1                            00000001
CCP6M2                            00000002
CCP6M3                            00000003
CCP6MD                            00000003
CCP6OD                            00000003
CCP6X                             00000005
CCP6Y                             00000004
CCP6_PORTE                        00000006
CCP6_PORTH                        00000007
CCP7CON                           00000F6E
CCP7IE                            00000004
CCP7IF                            00000004
CCP7IP                            00000004
CCP7M0                            00000000
CCP7M1                            00000001
CCP7M2                            00000002
CCP7M3                            00000003
CCP7MD                            00000004
CCP7OD                            00000004
CCP7X                             00000005
CCP7Y                             00000004
CCP7_PORTE                        00000005
CCP7_PORTH                        00000006
CCP8CON                           00000F46
CCP8IE                            00000005
CCP8IF                            00000005
CCP8IP                            00000005
CCP8M0                            00000000
CCP8M1                            00000001
CCP8M2                            00000002
CCP8M3                            00000003
CCP8MD                            00000005
CCP8OD                            00000005
CCP8X                             00000005
CCP8Y                             00000004
CCP8_PORTE                        00000004
MPASM 5.81                           LCD.ASM   11-14-2019  18:36:41         PAGE 25


SYMBOL TABLE
  LABEL                             VALUE 

CCP8_PORTH                        00000005
CCP9CON                           00000F43
CCP9IE                            00000006
CCP9IF                            00000006
CCP9IP                            00000006
CCP9M0                            00000000
CCP9M1                            00000001
CCP9M2                            00000002
CCP9M3                            00000003
CCP9MD                            00000006
CCP9OD                            00000006
CCP9X                             00000005
CCP9Y                             00000004
CCP9_PORTE                        00000003
CCP9_PORTH                        00000004
CCPR1                             00000FBC
CCPR10                            00000F41
CCPR10H                           00000F42
CCPR10L                           00000F41
CCPR1H                            00000FBD
CCPR1L                            00000FBC
CCPR2                             00000F4F
CCPR2H                            00000F50
CCPR2L                            00000F4F
CCPR3                             00000F4A
CCPR3H                            00000F4B
CCPR3L                            00000F4A
CCPR4                             00000F78
CCPR4H                            00000F79
CCPR4L                            00000F78
CCPR5                             00000F75
CCPR5H                            00000F76
CCPR5L                            00000F75
CCPR6                             00000F72
CCPR6H                            00000F73
CCPR6L                            00000F72
CCPR7                             00000F6F
CCPR7H                            00000F70
CCPR7L                            00000F6F
CCPR8                             00000F47
CCPR8H                            00000F48
CCPR8L                            00000F47
CCPR9                             00000F44
CCPR9H                            00000F45
CCPR9L                            00000F44
CCPTMRS0                          00000F2D
CCPTMRS1                          00000F2C
CCPTMRS2                          00000F2B
CE                                00000005
CFGS                              00000006
CHIME                             00000006
CHS0                              00000002
CHS1                              00000003
MPASM 5.81                           LCD.ASM   11-14-2019  18:36:41         PAGE 26


SYMBOL TABLE
  LABEL                             VALUE 

CHS2                              00000004
CHS3                              00000005
CHS4                              00000006
CHSN0                             00000000
CHSN1                             00000001
CHSN2                             00000002
CK1                               00000006
CK2                               00000001
CKE                               00000006
CKP                               00000004
CLKI                              00000007
CLKO                              00000006
CM                                00000005
CM1CON                            00000F54
CM1CON1                           00000F54
CM2CON                            00000F2F
CM2CON1                           00000F2F
CM3CON                            00000F2E
CM3CON1                           00000F2E
CMP1IE                            00000000
CMP1IF                            00000000
CMP1IP                            00000000
CMP1MD                            00000000
CMP1OUT                           00000005
CMP2IE                            00000001
CMP2IF                            00000001
CMP2IP                            00000001
CMP2MD                            00000001
CMP2OUT                           00000006
CMP3IE                            00000002
CMP3IF                            00000002
CMP3IP                            00000002
CMP3MD                            00000002
CMP3OUT                           00000007
CMPL0                             00000006
CMPL1                             00000007
CMSTAT                            00000FB4
CMSTATUS                          00000FB4
COE                               00000006
CON                               00000007
CPOL                              00000005
CREF                              00000002
CREN                              00000004
CREN1                             00000004
CREN2                             00000004
CSRC                              00000007
CSRC1                             00000007
CSRC2                             00000007
CTDIN                             00000001
CTED1                             00000002
CTED2                             00000003
CTMUCONH                          00000F57
CTMUCONL                          00000F56
MPASM 5.81                           LCD.ASM   11-14-2019  18:36:41         PAGE 27


SYMBOL TABLE
  LABEL                             VALUE 

CTMUDS                            00000000
CTMUEN                            00000007
CTMUI                             00000003
CTMUICON                          00000F55
CTMUIE                            00000003
CTMUIF                            00000003
CTMUIP                            00000003
CTMUMD                            00000006
CTMUSIDL                          00000005
CTPLS                             00000000
CTTRIG                            00000000
CVR0                              00000000
CVR1                              00000001
CVR2                              00000002
CVR3                              00000003
CVR4                              00000004
CVRCON                            00000FB5
CVREF                             00000005
CVREN                             00000007
CVROE                             00000006
CVRSS                             00000005
Clear_Layer                       000000A0
Colour1                           0000006C
Control                           00000016
D                                 00000005
DATA_ADDRESS                      00000005
DC                                00000001
DC10B0                            00000004
DC10B1                            00000005
DC1B0                             00000004
DC1B1                             00000005
DC2B0                             00000004
DC2B1                             00000005
DC3B0                             00000004
DC3B1                             00000005
DC4B0                             00000004
DC4B1                             00000005
DC5B0                             00000004
DC5B1                             00000005
DC6B0                             00000004
DC6B1                             00000005
DC7B0                             00000004
DC7B1                             00000005
DC8B0                             00000004
DC8B1                             00000005
DC9B0                             00000004
DC9B1                             00000005
DDRA                              TRISA
DDRB                              TRISB
DDRC                              TRISC
DDRD                              TRISD
DDRE                              TRISE
DONE                              00000001
MPASM 5.81                           LCD.ASM   11-14-2019  18:36:41         PAGE 28


SYMBOL TABLE
  LABEL                             VALUE 

DT1                               00000007
DT2                               00000002
D_A                               00000005
D_NOT_A                           00000005
Delay_ms                          00000000
EBDIS                             00000007
ECCP1AS                           00000FBF
ECCP1AS0                          00000004
ECCP1AS1                          00000005
ECCP1AS2                          00000006
ECCP1ASE                          00000007
ECCP1CON                          00000FBB
ECCP1DEL                          00000FBE
ECCP2AS                           00000F52
ECCP2AS0                          00000004
ECCP2AS1                          00000005
ECCP2AS2                          00000006
ECCP2ASE                          00000007
ECCP2CON                          00000F4E
ECCP2DEL                          00000F51
ECCP3AS                           00000F4D
ECCP3AS0                          00000004
ECCP3AS1                          00000005
ECCP3AS2                          00000006
ECCP3ASE                          00000007
ECCP3DEL                          00000F4C
EDG1POL                           00000004
EDG1SEL0                          00000002
EDG1SEL1                          00000003
EDG1STAT                          00000000
EDG2POL                           00000007
EDG2SEL0                          00000005
EDG2SEL1                          00000006
EDG2STAT                          00000001
EDGEN                             00000003
EDGSEQEN                          00000002
EEADR                             00000F62
EEADRH                            00000F63
EECON1                            00000F7F
EECON2                            00000F7E
EEDATA                            00000F61
EEIE                              00000004
EEIF                              00000004
EEIP                              00000004
EEPGD                             00000007
EMBMD                             00000000
EVPOL0                            00000003
EVPOL1                            00000004
FAST                              00000001
FERR                              00000002
FERR1                             00000002
FERR2                             00000002
FLT0                              00000000
MPASM 5.81                           LCD.ASM   11-14-2019  18:36:41         PAGE 29


SYMBOL TABLE
  LABEL                             VALUE 

FREE                              00000004
FSR0                              00000000
FSR0H                             00000FEA
FSR0L                             00000FE9
FSR1                              00000001
FSR1H                             00000FE2
FSR1L                             00000FE1
FSR2                              00000002
FSR2H                             00000FDA
FSR2L                             00000FD9
GCEN                              00000007
GIE                               00000007
GIEH                              00000007
GIEL                              00000006
GIE_GIEH                          00000007
GO                                00000001
GO_NOT_DONE                       00000001
HALFSEC                           00000003
HFIOFS                            00000002
HLVDCON                           00000FA8
HLVDEN                            00000004
HLVDIE                            00000002
HLVDIF                            00000002
HLVDIN                            00000005
HLVDIP                            00000002
HLVDL0                            00000000
HLVDL1                            00000001
HLVDL2                            00000002
HLVDL3                            00000003
I2C_DAT                           00000005
I2C_READ                          00000002
I2C_START                         00000003
I2C_STOP                          00000004
IBF                               00000007
IBOV                              00000005
IDISSEN                           00000001
IDLEN                             00000007
INDF0                             00000FEF
INDF1                             00000FE7
INDF2                             00000FDF
INT0                              00000000
INT0E                             00000004
INT0F                             00000001
INT0IE                            00000004
INT0IF                            00000001
INT1                              00000001
INT1E                             00000003
INT1F                             00000000
INT1IE                            00000003
INT1IF                            00000000
INT1IP                            00000006
INT1P                             00000006
INT2                              00000002
MPASM 5.81                           LCD.ASM   11-14-2019  18:36:41         PAGE 30


SYMBOL TABLE
  LABEL                             VALUE 

INT2E                             00000004
INT2F                             00000001
INT2IE                            00000004
INT2IF                            00000001
INT2IP                            00000007
INT2P                             00000007
INT3                              00000003
INT3E                             00000005
INT3F                             00000002
INT3IE                            00000005
INT3IF                            00000002
INT3IP                            00000001
INT3P                             00000001
INTCON                            00000FF2
INTCON2                           00000FF1
INTCON3                           00000FF0
INTEDG0                           00000006
INTEDG1                           00000005
INTEDG2                           00000004
INTEDG3                           00000003
INTSRC                            00000007
IPEN                              00000007
IPR1                              00000F9F
IPR2                              00000FA2
IPR3                              00000FA5
IPR4                              00000FB8
IPR5                              00000FD2
IPR6                              00000FA9
IRCF0                             00000004
IRCF1                             00000005
IRCF2                             00000006
IRNG0                             00000000
IRNG1                             00000001
IRVST                             00000005
ITRIM0                            00000002
ITRIM1                            00000003
ITRIM2                            00000004
ITRIM3                            00000005
ITRIM4                            00000006
ITRIM5                            00000007
KBI0                              00000004
KBI1                              00000005
KBI2                              00000006
KBI3                              00000007
Keypad_getKey                     00000000
Keypad_output                     00000000
LATA                              00000F89
LATA0                             00000000
LATA1                             00000001
LATA2                             00000002
LATA3                             00000003
LATA4                             00000004
LATA5                             00000005
MPASM 5.81                           LCD.ASM   11-14-2019  18:36:41         PAGE 31


SYMBOL TABLE
  LABEL                             VALUE 

LATA6                             00000006
LATA7                             00000007
LATB                              00000F8A
LATB0                             00000000
LATB1                             00000001
LATB2                             00000002
LATB3                             00000003
LATB4                             00000004
LATB5                             00000005
LATB6                             00000006
LATB7                             00000007
LATC                              00000F8B
LATC0                             00000000
LATC1                             00000001
LATC2                             00000002
LATC3                             00000003
LATC4                             00000004
LATC5                             00000005
LATC6                             00000006
LATC7                             00000007
LATD                              00000F8C
LATD0                             00000000
LATD1                             00000001
LATD2                             00000002
LATD3                             00000003
LATD4                             00000004
LATD5                             00000005
LATD6                             00000006
LATD7                             00000007
LATE                              00000F8D
LATE0                             00000000
LATE1                             00000001
LATE2                             00000002
LATE3                             00000003
LATE4                             00000004
LATE5                             00000005
LATE6                             00000006
LATE7                             00000007
LATF                              00000F8E
LATF1                             00000001
LATF2                             00000002
LATF3                             00000003
LATF4                             00000004
LATF5                             00000005
LATF6                             00000006
LATF7                             00000007
LATG                              00000F8F
LATG0                             00000000
LATG1                             00000001
LATG2                             00000002
LATG3                             00000003
LATG4                             00000004
LATH                              00000F90
MPASM 5.81                           LCD.ASM   11-14-2019  18:36:41         PAGE 32


SYMBOL TABLE
  LABEL                             VALUE 

LATH0                             00000000
LATH1                             00000001
LATH2                             00000002
LATH3                             00000003
LATH4                             00000004
LATH5                             00000005
LATH6                             00000006
LATH7                             00000007
LATJ                              00000F91
LATJ0                             00000000
LATJ1                             00000001
LATJ2                             00000002
LATJ3                             00000003
LATJ4                             00000004
LATJ5                             00000005
LATJ6                             00000006
LATJ7                             00000007
LB                                00000006
LCD_DisplayOn                     00000416
LCD_GPIOX                         00000424
LCD_Initialisation                000002A2
LCD_LineHelper                    000001DC
LCD_PLLinit                       000003EE
LCD_PWM1config                    00000432
LCD_PWM1out                       00000440
LCD_RectHelper                    00000104
LCD_ScrollY                       000000CE
LCD_SetScrollWindow               0000044E
LCD_TwoLayers                     000004BC
LCD_height                        480
LCD_width                         800
LVDIE                             00000002
LVDIF                             00000002
LVDIP                             00000002
LYEN                              0
LYEN1                             00000050
LYEN2                             0000005E
MEMCON                            00000F26
MFIOFS                            00000001
MFIOSEL                           00000000
MSK0                              00000000
MSK1                              00000001
MSK2                              00000002
MSK3                              00000003
MSK4                              00000004
MSK5                              00000005
MSK6                              00000006
MSK7                              00000007
N                                 00000004
NOT_A                             00000005
NOT_ADDRESS                       00000005
NOT_BOR                           00000000
NOT_CM                            00000005
MPASM 5.81                           LCD.ASM   11-14-2019  18:36:41         PAGE 33


SYMBOL TABLE
  LABEL                             VALUE 

NOT_CS                            00000002
NOT_DONE                          00000001
NOT_PD                            00000002
NOT_POR                           00000001
NOT_RBPU                          00000007
NOT_RC8                           00000006
NOT_RD                            00000000
NOT_RI                            00000004
NOT_SS2                           00000007
NOT_T1DONE                        00000003
NOT_T1SYNC                        00000002
NOT_T3DONE                        00000003
NOT_T3SYNC                        00000002
NOT_T5DONE                        00000003
NOT_T5SYNC                        00000002
NOT_T7DONE                        00000003
NOT_T7SYNC                        00000002
NOT_TO                            00000003
NOT_TX8                           00000006
NOT_W                             00000002
NOT_WR                            00000001
NOT_WRITE                         00000002
New_Box                           00000000
OBF                               00000006
ODCON1                            00000F29
ODCON2                            00000F28
ODCON3                            00000F27
OE                                00000001
OERR                              00000001
OERR1                             00000001
OERR2                             00000001
OSC1                              00000007
OSC2                              00000006
OSCCON                            00000FD3
OSCCON2                           00000F64
OSCFIE                            00000007
OSCFIF                            00000007
OSCFIP                            00000007
OSCTUNE                           00000F9B
OSTS                              00000003
OV                                00000003
P                                 00000004
P1A                               00000002
P1B                               00000006
P1C                               00000005
P1DC0                             00000000
P1DC1                             00000001
P1DC2                             00000002
P1DC3                             00000003
P1DC4                             00000004
P1DC5                             00000005
P1DC6                             00000006
P1M0                              00000006
MPASM 5.81                           LCD.ASM   11-14-2019  18:36:41         PAGE 34


SYMBOL TABLE
  LABEL                             VALUE 

P1M1                              00000007
P1RSEN                            00000007
P2A_PORTC                         00000001
P2A_PORTE                         00000007
P2B                               00000002
P2C                               00000001
P2D                               00000000
P2DC0                             00000000
P2DC1                             00000001
P2DC2                             00000002
P2DC3                             00000003
P2DC4                             00000004
P2DC5                             00000005
P2DC6                             00000006
P2M0                              00000006
P2M1                              00000007
P2RSEN                            00000007
P3B                               00000004
P3C                               00000003
P3DC0                             00000000
P3DC1                             00000001
P3DC2                             00000002
P3DC3                             00000003
P3DC4                             00000004
P3DC5                             00000005
P3DC6                             00000006
P3M0                              00000006
P3M1                              00000007
P3RSEN                            00000007
PA3                               00000000
PADCFG1                           00000F53
PB1                               00000007
PB3                               00000005
PC                                00000FF9
PC1                               00000006
PC3                               00000004
PCL                               00000FF9
PCLATH                            00000FFA
PCLATU                            00000FFB
PD                                00000002
PD1                               00000004
PD3                               00000003
PEIE                              00000006
PEIE_GIEL                         00000006
PEN                               00000002
PGC                               00000006
PGD                               00000007
PGM                               00000005
PIE1                              00000F9D
PIE2                              00000FA0
PIE3                              00000FA3
PIE4                              00000FB6
PIE5                              00000FB9
MPASM 5.81                           LCD.ASM   11-14-2019  18:36:41         PAGE 35


SYMBOL TABLE
  LABEL                             VALUE 

PIE6                              00000F60
PIR1                              00000F9E
PIR2                              00000FA1
PIR3                              00000FA4
PIR4                              00000FB7
PIR5                              00000FBA
PIR6                              00000FA6
PLLEN                             00000006
PLUSW0                            00000FEB
PLUSW1                            00000FE3
PLUSW2                            00000FDB
PMD0                              00000F19
PMD1                              00000F18
PMD2                              00000F17
PMD3                              00000F16
POR                               00000001
PORTA                             00000F80
PORTB                             00000F81
PORTC                             00000F82
PORTD                             00000F83
PORTE                             00000F84
PORTF                             00000F85
PORTG                             00000F86
PORTH                             00000F87
PORTJ                             00000F88
POSTDEC0                          00000FED
POSTDEC1                          00000FE5
POSTDEC2                          00000FDD
POSTINC0                          00000FEE
POSTINC1                          00000FE6
POSTINC2                          00000FDE
PR10                              00000F34
PR12                              00000F31
PR2                               00000FCB
PR4                               00000F6C
PR6                               00000F3A
PR8                               00000F37
PREINC0                           00000FEC
PREINC1                           00000FE4
PREINC2                           00000FDC
PROD                              00000FF3
PRODH                             00000FF4
PRODL                             00000FF3
PSA                               00000003
PSP0                              00000000
PSP1                              00000001
PSP2                              00000002
PSP3                              00000003
PSP4                              00000004
PSP5                              00000005
PSP6                              00000006
PSP7                              00000007
PSPCON                            00000FA7
MPASM 5.81                           LCD.ASM   11-14-2019  18:36:41         PAGE 36


SYMBOL TABLE
  LABEL                             VALUE 

PSPIE                             00000007
PSPIF                             00000007
PSPIP                             00000007
PSPMD                             00000007
PSPMODE                           00000004
PSS1AC0                           00000002
PSS1AC1                           00000003
PSS1BD0                           00000000
PSS1BD1                           00000001
PSS2AC0                           00000002
PSS2AC1                           00000003
PSS2BD0                           00000000
PSS2BD1                           00000001
PSS3AC0                           00000002
PSS3AC1                           00000003
PSS3BD0                           00000000
PSS3BD1                           00000001
PSTR1CON                          00000F9C
PSTR2CON                          00000F1B
PSTR3CON                          00000F1A
PWM1CON                           00000FBE
PWM2CON                           00000F51
R                                 00000002
RA0                               00000000
RA1                               00000001
RA2                               00000002
RA3                               00000003
RA4                               00000004
RA5                               00000005
RA6                               00000006
RA7                               00000007
RA8875_BLACK                      0x0000
RA8875_BLUE                       0x001F
RA8875_BTCR                       0x44
RA8875_CMDREAD                    0xC0
RA8875_CMDWRITE                   0x80
RA8875_CURH0                      0x46
RA8875_CURH1                      0x47
RA8875_CURV0                      0x48
RA8875_CURV1                      0x49
RA8875_CYAN                       0x07FF
RA8875_DATAREAD                   0x40
RA8875_DATAWRITE                  0x00
RA8875_DCR                        0x90
RA8875_DCR_CIRCLE_START           0x40
RA8875_DCR_CIRCLE_STATUS          0x40
RA8875_DCR_CIRCLE_STOP            0x00
RA8875_DCR_DRAWLINE               0x00
RA8875_DCR_DRAWSQUARE             0x10
RA8875_DCR_DRAWTRIANGLE           0x01
RA8875_DCR_FILL                   0x20
RA8875_DCR_LINESQUTRI_START       0x80
RA8875_DCR_LINESQUTRI_STATUS      0x80
MPASM 5.81                           LCD.ASM   11-14-2019  18:36:41         PAGE 37


SYMBOL TABLE
  LABEL                             VALUE 

RA8875_DCR_LINESQUTRI_STOP        0x00
RA8875_DCR_NOFILL                 0x00
RA8875_ELLIPSE                    0xA0
RA8875_ELLIPSE_STATUS             0x80
RA8875_GPIOX                      0xC7
RA8875_GREEN                      0x07E0
RA8875_HDWR                       0x14
RA8875_HEAW0                      0x34
RA8875_HEAW1                      0x35
RA8875_HNDFTR                     0x15
RA8875_HNDFTR_DE_HIGH             0x00
RA8875_HNDFTR_DE_LOW              0x80
RA8875_HNDR                       0x16
RA8875_HPWR                       0x18
RA8875_HPWR_HIGH                  0x80
RA8875_HPWR_LOW                   0x00
RA8875_HSAW0                      0x30
RA8875_HSAW1                      0x31
RA8875_HSTR                       0x17
RA8875_INTC1                      0xF0
RA8875_INTC1_BTE                  0x02
RA8875_INTC1_DMA                  0x08
RA8875_INTC1_KEY                  0x10
RA8875_INTC1_TP                   0x04
RA8875_INTC2                      0xF1
RA8875_INTC2_BTE                  0x02
RA8875_INTC2_DMA                  0x08
RA8875_INTC2_KEY                  0x10
RA8875_INTC2_TP                   0x04
RA8875_MAGENTA                    0xF81F
RA8875_MCLR                       0x8E
RA8875_MCLR_ACTIVE                0x40
RA8875_MCLR_FULL                  0x00
RA8875_MCLR_READSTATUS            0x80
RA8875_MCLR_START                 0x80
RA8875_MCLR_STOP                  0x00
RA8875_MRWC                       0x02
RA8875_MWCR0                      0x40
RA8875_MWCR0_BLINK                0x20
RA8875_MWCR0_CURSOR               0x40
RA8875_MWCR0_DIRMASK              0x0C
RA8875_MWCR0_DTLR                 0x0C
RA8875_MWCR0_GFXMODE              0x00
RA8875_MWCR0_LRTD                 0x00
RA8875_MWCR0_RLTD                 0x04
RA8875_MWCR0_TDLR                 0x08
RA8875_MWCR0_TXTMODE              0x80
RA8875_P1CR                       0x8A
RA8875_P1CR_CLKOUT                0x10
RA8875_P1CR_DISABLE               0x00
RA8875_P1CR_ENABLE                0x80
RA8875_P1CR_PWMOUT                0x00
RA8875_P1DCR                      0x8B
MPASM 5.81                           LCD.ASM   11-14-2019  18:36:41         PAGE 38


SYMBOL TABLE
  LABEL                             VALUE 

RA8875_P2CR                       0x8C
RA8875_P2CR_CLKOUT                0x10
RA8875_P2CR_DISABLE               0x00
RA8875_P2CR_ENABLE                0x80
RA8875_P2CR_PWMOUT                0x00
RA8875_P2DCR                      0x8D
RA8875_PCSR                       0x04
RA8875_PCSR_2CLK                  0x01
RA8875_PCSR_4CLK                  0x02
RA8875_PCSR_8CLK                  0x03
RA8875_PCSR_CLK                   0x00
RA8875_PCSR_PDATL                 0x80
RA8875_PCSR_PDATR                 0x00
RA8875_PLLC1                      0x88
RA8875_PLLC1_PLLDIV1              0x00
RA8875_PLLC1_PLLDIV2              0x80
RA8875_PLLC2                      0x89
RA8875_PLLC2_DIV1                 0x00
RA8875_PLLC2_DIV128               0x07
RA8875_PLLC2_DIV16                0x04
RA8875_PLLC2_DIV2                 0x01
RA8875_PLLC2_DIV32                0x05
RA8875_PLLC2_DIV4                 0x02
RA8875_PLLC2_DIV64                0x06
RA8875_PLLC2_DIV8                 0x03
RA8875_PWM_CLK_DIV1               0x00
RA8875_PWM_CLK_DIV1024            0x0A
RA8875_PWM_CLK_DIV128             0x07
RA8875_PWM_CLK_DIV16              0x04
RA8875_PWM_CLK_DIV16384           0x0E
RA8875_PWM_CLK_DIV2               0x01
RA8875_PWM_CLK_DIV2048            0x0B
RA8875_PWM_CLK_DIV256             0x08
RA8875_PWM_CLK_DIV32              0x05
RA8875_PWM_CLK_DIV32768           0x0F
RA8875_PWM_CLK_DIV4               0x02
RA8875_PWM_CLK_DIV4096            0x0C
RA8875_PWM_CLK_DIV512             0x09
RA8875_PWM_CLK_DIV64              0x06
RA8875_PWM_CLK_DIV8               0x03
RA8875_PWM_CLK_DIV8192            0x0D
RA8875_PWRR                       0x01
RA8875_PWRR_DISPOFF               0x00
RA8875_PWRR_DISPON                0x80
RA8875_PWRR_NORMAL                0x00
RA8875_PWRR_SLEEP                 0x02
RA8875_PWRR_SOFTRESET             0x01
RA8875_RED                        0xF800
RA8875_SCROLL_BOTH                0x00
RA8875_SCROLL_BUFFER              0xC0
RA8875_SCROLL_LAYER1              0x40
RA8875_SCROLL_LAYER2              0x80
RA8875_SYSR                       0x10
MPASM 5.81                           LCD.ASM   11-14-2019  18:36:41         PAGE 39


SYMBOL TABLE
  LABEL                             VALUE 

RA8875_SYSR_16BPP                 0x0C
RA8875_SYSR_8BPP                  0x00
RA8875_SYSR_MCU16                 0x03
RA8875_SYSR_MCU8                  0x00
RA8875_TPCR0                      0x70
RA8875_TPCR0_ADCCLK_DIV1          0x00
RA8875_TPCR0_ADCCLK_DIV128        0x07
RA8875_TPCR0_ADCCLK_DIV16         0x04
RA8875_TPCR0_ADCCLK_DIV2          0x01
RA8875_TPCR0_ADCCLK_DIV32         0x05
RA8875_TPCR0_ADCCLK_DIV4          0x02
RA8875_TPCR0_ADCCLK_DIV64         0x06
RA8875_TPCR0_ADCCLK_DIV8          0x03
RA8875_TPCR0_DISABLE              0x00
RA8875_TPCR0_ENABLE               0x80
RA8875_TPCR0_WAIT_1024CLK         0x10
RA8875_TPCR0_WAIT_16384CLK        0x50
RA8875_TPCR0_WAIT_2048CLK         0x20
RA8875_TPCR0_WAIT_32768CLK        0x60
RA8875_TPCR0_WAIT_4096CLK         0x30
RA8875_TPCR0_WAIT_512CLK          0x00
RA8875_TPCR0_WAIT_65536CLK        0x70
RA8875_TPCR0_WAIT_8192CLK         0x40
RA8875_TPCR0_WAKEDISABLE          0x00
RA8875_TPCR0_WAKEENABLE           0x08
RA8875_TPCR1                      0x71
RA8875_TPCR1_AUTO                 0x00
RA8875_TPCR1_DEBOUNCE             0x04
RA8875_TPCR1_IDLE                 0x00
RA8875_TPCR1_LATCHX               0x02
RA8875_TPCR1_LATCHY               0x03
RA8875_TPCR1_MANUAL               0x40
RA8875_TPCR1_NODEBOUNCE           0x00
RA8875_TPCR1_VREFEXT              0x20
RA8875_TPCR1_VREFINT              0x00
RA8875_TPCR1_WAIT                 0x01
RA8875_TPXH                       0x72
RA8875_TPXYL                      0x74
RA8875_TPYH                       0x73
RA8875_VDHR0                      0x19
RA8875_VDHR1                      0x1A
RA8875_VEAW0                      0x36
RA8875_VEAW1                      0x37
RA8875_VNDR0                      0x1B
RA8875_VNDR1                      0x1C
RA8875_VPWR                       0x1F
RA8875_VPWR_HIGH                  0x80
RA8875_VPWR_LOW                   0x00
RA8875_VSAW0                      0x32
RA8875_VSAW1                      0x33
RA8875_VSTR0                      0x1D
RA8875_VSTR1                      0x1E
RA8875_WHITE                      0xFFFF
MPASM 5.81                           LCD.ASM   11-14-2019  18:36:41         PAGE 40


SYMBOL TABLE
  LABEL                             VALUE 

RA8875_YELLOW                     0xFFE0
RB0                               00000000
RB1                               00000001
RB2                               00000002
RB3                               00000003
RB4                               00000004
RB5                               00000005
RB6                               00000006
RB7                               00000007
RBIE                              00000003
RBIF                              00000000
RBIP                              00000000
RBPU                              00000007
RC0                               00000000
RC1                               00000001
RC1IE                             00000005
RC1IF                             00000005
RC1IP                             00000005
RC2                               00000002
RC2IE                             00000005
RC2IF                             00000005
RC2IP                             00000005
RC3                               00000003
RC4                               00000004
RC5                               00000005
RC6                               00000006
RC7                               00000007
RC8_9                             00000006
RC9                               00000006
RCD8                              00000000
RCEN                              00000003
RCIDL                             00000006
RCIE                              00000005
RCIF                              00000005
RCIP                              00000005
RCON                              00000FD0
RCREG                             00000FAE
RCREG1                            00000FAE
RCREG2                            00000F1D
RCSTA                             00000FAB
RCSTA1                            00000FAB
RCSTA2                            00000F22
RD                                00000000
RD0                               00000000
RD1                               00000001
RD16                              00000001
RD2                               00000002
RD3                               00000003
RD4                               00000004
RD5                               00000005
RD6                               00000006
RD7                               00000007
RDPU                              00000007
MPASM 5.81                           LCD.ASM   11-14-2019  18:36:41         PAGE 41


SYMBOL TABLE
  LABEL                             VALUE 

RE0                               00000000
RE1                               00000001
RE2                               00000002
RE3                               00000003
RE4                               00000004
RE5                               00000005
RE6                               00000006
RE7                               00000007
READ_WRITE                        00000002
REFO                              00000003
REFOCON                           00000F2A
REGSLP                            00000007
REPU                              00000006
RF1                               00000001
RF2                               00000002
RF3                               00000003
RF4                               00000004
RF5                               00000005
RF6                               00000006
RF7                               00000007
RG0                               00000000
RG1                               00000001
RG2                               00000002
RG3                               00000003
RG4                               00000004
RG5                               00000005
RH0                               00000000
RH1                               00000001
RH2                               00000002
RH3                               00000003
RH4                               00000004
RH5                               00000005
RH6                               00000006
RH7                               00000007
RI                                00000004
RJ0                               00000000
RJ1                               00000001
RJ2                               00000002
RJ3                               00000003
RJ4                               00000004
RJ5                               00000005
RJ6                               00000006
RJ7                               00000007
RJPU                              00000005
RODIV0                            00000000
RODIV1                            00000001
RODIV2                            00000002
RODIV3                            00000003
ROON                              00000007
ROSEL                             00000004
ROSSLP                            00000005
RSEN                              00000001
RTCC                              00000004
MPASM 5.81                           LCD.ASM   11-14-2019  18:36:41         PAGE 42


SYMBOL TABLE
  LABEL                             VALUE 

RTCCAL                            00000F5E
RTCCFG                            00000F5F
RTCCIE                            00000000
RTCCIF                            00000000
RTCCIP                            00000000
RTCCMD                            00000005
RTCEN                             00000007
RTCOE                             00000002
RTCPTR0                           00000000
RTCPTR1                           00000001
RTCSYNC                           00000004
RTCVAL                            00000F5C
RTCVALH                           00000F5D
RTCVALL                           00000F5C
RTCWREN                           00000005
RTSECSEL0                         00000001
RTSECSEL1                         00000002
RX1                               00000007
RX2                               00000002
RX9                               00000006
RX91                              00000006
RX92                              00000006
RX9D                              00000000
RX9D1                             00000000
RX9D2                             00000000
RXDTP                             00000005
R_NOT_W                           00000002
R_W                               00000002
S                                 00000003
SBOREN                            00000006
SCK1                              00000003
SCK2                              00000006
SCKLI                             00000000
SCL1                              00000003
SCL2                              00000006
SCS0                              00000000
SCS1                              00000001
SDA1                              00000004
SDA2                              00000005
SDI1                              00000004
SDI2                              00000005
SDO1                              00000005
SDO2                              00000004
SEN                               00000000
SENDB                             00000003
SENDB1                            00000003
SENDB2                            00000003
SMP                               00000007
SOSCEN                            00000003
SOSCGO                            00000003
SOSCI                             00000001
SOSCO                             00000000
SOSCRUN                           00000006
MPASM 5.81                           LCD.ASM   11-14-2019  18:36:41         PAGE 43


SYMBOL TABLE
  LABEL                             VALUE 

SP0                               00000000
SP1                               00000001
SP2                               00000002
SP3                               00000003
SP4                               00000004
SPBRG                             00000FAF
SPBRG1                            00000FAF
SPBRG2                            00000F1E
SPBRGH1                           00000FD4
SPBRGH2                           00000F1F
SPEN                              00000007
SPEN1                             00000007
SPEN2                             00000007
SPI1OD                            00000007
SPI2OD                            00000000
SPI_writeREG                      00000000
SREN                              00000005
SREN1                             00000005
SREN2                             00000005
SRETEN                            00000004
SS1                               00000007
SSP1ADD                           00000FC8
SSP1BUF                           00000FC9
SSP1CON1                          00000FC6
SSP1CON2                          00000FC5
SSP1IE                            00000003
SSP1IF                            00000003
SSP1IP                            00000003
SSP1MD                            00000001
SSP1MSK                           00000FC8
SSP1STAT                          00000FC7
SSP2ADD                           00000F69
SSP2BUF                           00000F6A
SSP2CON1                          00000F67
SSP2CON2                          00000F66
SSP2IE                            00000005
SSP2IF                            00000005
SSP2IP                            00000005
SSP2MD                            00000002
SSP2MSK                           00000F69
SSP2STAT                          00000F68
SSPADD                            00000FC8
SSPBUF                            00000FC9
SSPCON1                           00000FC6
SSPCON2                           00000FC5
SSPEN                             00000005
SSPIE                             00000003
SSPIF                             00000003
SSPIP                             00000003
SSPM0                             00000000
SSPM1                             00000001
SSPM2                             00000002
SSPM3                             00000003
MPASM 5.81                           LCD.ASM   11-14-2019  18:36:41         PAGE 44


SYMBOL TABLE
  LABEL                             VALUE 

SSPOV                             00000006
SSPSTAT                           00000FC7
STATUS                            00000FD8
STKFUL                            00000007
STKOVF                            00000007
STKPTR                            00000FFC
STKUNF                            00000006
STRA                              00000000
STRB                              00000001
STRC                              00000002
STRD                              00000003
STRSYNC                           00000004
SWDTE                             00000000
SWDTEN                            00000000
SYNC                              00000004
SYNC1                             00000004
SYNC2                             00000004
Scroll                            00000070
Scroll_d_h                        00000015
Scroll_d_l                        00000014
SetColour                         00000008
T08BIT                            00000006
T0CKI                             00000004
T0CON                             00000FD5
T0CS                              00000005
T0IE                              00000005
T0IF                              00000002
T0IP                              00000002
T0PS0                             00000000
T0PS1                             00000001
T0PS2                             00000002
T0SE                              00000004
T10CKPS0                          00000000
T10CKPS1                          00000001
T10CON                            00000F33
T10OUTPS0                         00000003
T10OUTPS1                         00000004
T10OUTPS2                         00000005
T10OUTPS3                         00000006
T12CKPS0                          00000000
T12CKPS1                          00000001
T12CON                            00000F30
T12OUTPS0                         00000003
T12OUTPS1                         00000004
T12OUTPS2                         00000005
T12OUTPS3                         00000006
T1CKI                             00000005
T1CKPS0                           00000004
T1CKPS1                           00000005
T1CON                             00000FCD
T1G                               00000005
T1GCON                            00000FAA
T1GGO                             00000003
MPASM 5.81                           LCD.ASM   11-14-2019  18:36:41         PAGE 45


SYMBOL TABLE
  LABEL                             VALUE 

T1GGO_NOT_T1DONE                  00000003
T1GPOL                            00000006
T1GSPM                            00000004
T1GSS0                            00000000
T1GSS1                            00000001
T1GTM                             00000005
T1GVAL                            00000002
T2CKPS0                           00000000
T2CKPS1                           00000001
T2CON                             00000FCA
T2OUTPS0                          00000003
T2OUTPS1                          00000004
T2OUTPS2                          00000005
T2OUTPS3                          00000006
T3CKI                             00000005
T3CKPS0                           00000004
T3CKPS1                           00000005
T3CON                             00000FB1
T3G                               00000005
T3GCON                            00000FB0
T3GGO                             00000003
T3GGO_NOT_T3DONE                  00000003
T3GPOL                            00000006
T3GSPM                            00000004
T3GSS0                            00000000
T3GSS1                            00000001
T3GTM                             00000005
T3GVAL                            00000002
T4CKPS0                           00000000
T4CKPS1                           00000001
T4CON                             00000F6B
T4OUTPS0                          00000003
T4OUTPS1                          00000004
T4OUTPS2                          00000005
T4OUTPS3                          00000006
T5CKI                             00000001
T5CKPS0                           00000004
T5CKPS1                           00000005
T5CON                             00000F7B
T5G                               00000004
T5GCON                            00000F7A
T5GGO                             00000003
T5GGO_NOT_T5DONE                  00000003
T5GPOL                            00000006
T5GSPM                            00000004
T5GSS0                            00000000
T5GSS1                            00000001
T5GTM                             00000005
T5GVAL                            00000002
T6CKPS0                           00000000
T6CKPS1                           00000001
T6CON                             00000F39
T6OUTPS0                          00000003
MPASM 5.81                           LCD.ASM   11-14-2019  18:36:41         PAGE 46


SYMBOL TABLE
  LABEL                             VALUE 

T6OUTPS1                          00000004
T6OUTPS2                          00000005
T6OUTPS3                          00000006
T7CKI                             00000004
T7CKPS0                           00000004
T7CKPS1                           00000005
T7CON                             00000F3D
T7G                               00000001
T7GCON                            00000F3C
T7GGO                             00000003
T7GGO_NOT_T7DONE                  00000003
T7GPOL                            00000006
T7GSPM                            00000004
T7GSS0                            00000000
T7GSS1                            00000001
T7GTM                             00000005
T7GVAL                            00000002
T8CKPS0                           00000000
T8CKPS1                           00000001
T8CON                             00000F36
T8OUTPS0                          00000003
T8OUTPS1                          00000004
T8OUTPS2                          00000005
T8OUTPS3                          00000006
TABLAT                            00000FF5
TBLPTR                            00000FF6
TBLPTRH                           00000FF7
TBLPTRL                           00000FF6
TBLPTRU                           00000FF8
TGEN                              00000004
TMR0                              00000FD6
TMR0H                             00000FD7
TMR0IE                            00000005
TMR0IF                            00000002
TMR0IP                            00000002
TMR0L                             00000FD6
TMR0ON                            00000007
TMR1                              00000FCE
TMR10                             00000F35
TMR10IE                           00000005
TMR10IF                           00000005
TMR10IP                           00000005
TMR10MD                           00000007
TMR10ON                           00000002
TMR12                             00000F32
TMR12IE                           00000006
TMR12IF                           00000006
TMR12IP                           00000006
TMR12MD                           00000000
TMR12ON                           00000002
TMR1CS0                           00000006
TMR1CS1                           00000007
TMR1GE                            00000007
MPASM 5.81                           LCD.ASM   11-14-2019  18:36:41         PAGE 47


SYMBOL TABLE
  LABEL                             VALUE 

TMR1GIE                           00000002
TMR1GIF                           00000002
TMR1GIP                           00000002
TMR1H                             00000FCF
TMR1IE                            00000000
TMR1IF                            00000000
TMR1IP                            00000000
TMR1L                             00000FCE
TMR1MD                            00000001
TMR1ON                            00000000
TMR2                              00000FCC
TMR2IE                            00000001
TMR2IF                            00000001
TMR2IP                            00000001
TMR2MD                            00000002
TMR2ON                            00000002
TMR3                              00000FB2
TMR3CS0                           00000006
TMR3CS1                           00000007
TMR3GE                            00000007
TMR3GIE                           00000000
TMR3GIF                           00000000
TMR3GIP                           00000000
TMR3H                             00000FB3
TMR3IE                            00000001
TMR3IF                            00000001
TMR3IP                            00000001
TMR3L                             00000FB2
TMR3MD                            00000003
TMR3ON                            00000000
TMR4                              00000F6D
TMR4IE                            00000000
TMR4IF                            00000000
TMR4IP                            00000000
TMR4MD                            00000004
TMR4ON                            00000002
TMR5                              00000F7C
TMR5CS0                           00000006
TMR5CS1                           00000007
TMR5GE                            00000007
TMR5GIE                           00000007
TMR5GIF                           00000007
TMR5GIP                           00000007
TMR5H                             00000F7D
TMR5IE                            00000001
TMR5IF                            00000001
TMR5IP                            00000001
TMR5L                             00000F7C
TMR5MD                            00000003
TMR5ON                            00000000
TMR6                              00000F3B
TMR6IE                            00000002
TMR6IF                            00000002
MPASM 5.81                           LCD.ASM   11-14-2019  18:36:41         PAGE 48


SYMBOL TABLE
  LABEL                             VALUE 

TMR6IP                            00000002
TMR6MD                            00000004
TMR6ON                            00000002
TMR7                              00000F3E
TMR7CS0                           00000006
TMR7CS1                           00000007
TMR7GE                            00000007
TMR7GIE                           00000007
TMR7GIF                           00000007
TMR7GIP                           00000007
TMR7H                             00000F3F
TMR7IE                            00000003
TMR7IF                            00000003
TMR7IP                            00000003
TMR7L                             00000F3E
TMR7MD                            00000005
TMR7ON                            00000000
TMR8                              00000F38
TMR8IE                            00000004
TMR8IF                            00000004
TMR8IP                            00000004
TMR8MD                            00000006
TMR8ON                            00000002
TO                                00000003
TOS                               00000FFD
TOSH                              00000FFE
TOSL                              00000FFD
TOSU                              00000FFF
TRIGSEL0                          00000006
TRIGSEL1                          00000007
TRISA                             00000F92
TRISA0                            00000000
TRISA1                            00000001
TRISA2                            00000002
TRISA3                            00000003
TRISA4                            00000004
TRISA5                            00000005
TRISA6                            00000006
TRISA7                            00000007
TRISB                             00000F93
TRISB0                            00000000
TRISB1                            00000001
TRISB2                            00000002
TRISB3                            00000003
TRISB4                            00000004
TRISB5                            00000005
TRISB6                            00000006
TRISB7                            00000007
TRISC                             00000F94
TRISC0                            00000000
TRISC1                            00000001
TRISC2                            00000002
TRISC3                            00000003
MPASM 5.81                           LCD.ASM   11-14-2019  18:36:41         PAGE 49


SYMBOL TABLE
  LABEL                             VALUE 

TRISC4                            00000004
TRISC5                            00000005
TRISC6                            00000006
TRISC7                            00000007
TRISD                             00000F95
TRISD0                            00000000
TRISD1                            00000001
TRISD2                            00000002
TRISD3                            00000003
TRISD4                            00000004
TRISD5                            00000005
TRISD6                            00000006
TRISD7                            00000007
TRISE                             00000F96
TRISE0                            00000000
TRISE1                            00000001
TRISE2                            00000002
TRISE3                            00000003
TRISE4                            00000004
TRISE5                            00000005
TRISE6                            00000006
TRISE7                            00000007
TRISF                             00000F97
TRISF1                            00000001
TRISF2                            00000002
TRISF3                            00000003
TRISF4                            00000004
TRISF5                            00000005
TRISF6                            00000006
TRISF7                            00000007
TRISG                             00000F98
TRISG0                            00000000
TRISG1                            00000001
TRISG2                            00000002
TRISG3                            00000003
TRISG4                            00000004
TRISH                             00000F99
TRISH0                            00000000
TRISH1                            00000001
TRISH2                            00000002
TRISH3                            00000003
TRISH4                            00000004
TRISH5                            00000005
TRISH6                            00000006
TRISH7                            00000007
TRISJ                             00000F9A
TRISJ0                            00000000
TRISJ1                            00000001
TRISJ2                            00000002
TRISJ3                            00000003
TRISJ4                            00000004
TRISJ5                            00000005
TRISJ6                            00000006
MPASM 5.81                           LCD.ASM   11-14-2019  18:36:41         PAGE 50


SYMBOL TABLE
  LABEL                             VALUE 

TRISJ7                            00000007
TRMT                              00000001
TRMT1                             00000001
TRMT2                             00000001
TUN0                              00000000
TUN1                              00000001
TUN2                              00000002
TUN3                              00000003
TUN4                              00000004
TUN5                              00000005
TX1                               00000006
TX1IE                             00000004
TX1IF                             00000004
TX1IP                             00000004
TX2                               00000001
TX2IE                             00000004
TX2IF                             00000004
TX2IP                             00000004
TX8_9                             00000006
TX9                               00000006
TX91                              00000006
TX92                              00000006
TX9D                              00000000
TX9D1                             00000000
TX9D2                             00000000
TXCKP                             00000004
TXD8                              00000000
TXEN                              00000005
TXEN1                             00000005
TXEN2                             00000005
TXIE                              00000004
TXIF                              00000004
TXIP                              00000004
TXREG                             00000FAD
TXREG1                            00000FAD
TXREG2                            00000F1C
TXSTA                             00000FAC
TXSTA1                            00000FAC
TXSTA2                            00000F21
U1OD                              00000006
U2OD                              00000007
UA                                00000001
UART1MD                           00000003
UART2MD                           00000004
UB                                00000007
ULPEN                             00000002
ULPLVL                            00000005
ULPSINK                           00000001
ULPWU                             00000000
VCFG0                             00000004
VCFG1                             00000005
VDIRMAG                           00000007
VNCFG                             00000003
MPASM 5.81                           LCD.ASM   11-14-2019  18:36:41         PAGE 51


SYMBOL TABLE
  LABEL                             VALUE 

VREF_MINUS                        00000002
VREF_PLUS                         00000003
W                                 00000000
WAIT0                             00000004
WAIT1                             00000005
WCOL                              00000007
WDTCON                            00000FD1
WM0                               00000000
WM1                               00000001
WR                                00000001
WREG                              00000FE8
WREN                              00000002
WRERR                             00000003
WRH                               00000003
WRL                               00000002
WUE                               00000001
Z                                 00000002
_ABW_MM_3L                        000000FF
_ABW_XM12_3L                      000000EF
_ABW_XM16_3L                      000000DF
_ABW_XM20_3L                      000000CF
_BBSIZ_BB1K_4L                    000000EF
_BBSIZ_BB2K_4L                    000000FF
_BOREN_NOSLP_2L                   000000FD
_BOREN_OFF_2L                     000000F9
_BOREN_ON_2L                      000000FB
_BOREN_SBORDIS_2L                 000000FF
_BORPWR_HIGH_2L                   000000DF
_BORPWR_LOW_2L                    0000009F
_BORPWR_MEDIUM_2L                 000000BF
_BORPWR_ZPBORMV_2L                000000FF
_BORV_0_2L                        000000E7
_BORV_1_2L                        000000EF
_BORV_2_2L                        000000F7
_BORV_3_2L                        000000FF
_BW_16_3L                         000000FF
_BW_8_3L                          000000BF
_CCP2MX_PORTBE_3H                 000000FE
_CCP2MX_PORTC_3H                  000000FF
_CONFIG1H                         00300001
_CONFIG1L                         00300000
_CONFIG2H                         00300003
_CONFIG2L                         00300002
_CONFIG3H                         00300005
_CONFIG3L                         00300004
_CONFIG4L                         00300006
_CONFIG5H                         00300009
_CONFIG5L                         00300008
_CONFIG6H                         0030000B
_CONFIG6L                         0030000A
_CONFIG7H                         0030000D
_CONFIG7L                         0030000C
_CP0_OFF_5L                       000000FF
MPASM 5.81                           LCD.ASM   11-14-2019  18:36:41         PAGE 52


SYMBOL TABLE
  LABEL                             VALUE 

_CP0_ON_5L                        000000FE
_CP1_OFF_5L                       000000FF
_CP1_ON_5L                        000000FD
_CP2_OFF_5L                       000000FF
_CP2_ON_5L                        000000FB
_CP3_OFF_5L                       000000FF
_CP3_ON_5L                        000000F7
_CP4_OFF_5L                       000000FF
_CP4_ON_5L                        000000EF
_CP5_OFF_5L                       000000FF
_CP5_ON_5L                        000000DF
_CP6_OFF_5L                       000000FF
_CP6_ON_5L                        000000BF
_CP7_OFF_5L                       000000FF
_CP7_ON_5L                        0000007F
_CPB_OFF_5H                       000000FF
_CPB_ON_5H                        000000BF
_CPD_OFF_5H                       000000FF
_CPD_ON_5H                        0000007F
_DEBUG_OFF_4L                     000000FF
_DEBUG_ON_4L                      0000007F
_DEVID1                           003FFFFE
_DEVID2                           003FFFFF
_EASHFT_OFF_3L                    000000F7
_EASHFT_ON_3L                     000000FF
_EBRT0_OFF_7L                     000000FF
_EBRT0_ON_7L                      000000FE
_EBRT1_OFF_7L                     000000FF
_EBRT1_ON_7L                      000000FD
_EBRT2_OFF_7L                     000000FF
_EBRT2_ON_7L                      000000FB
_EBRT3_OFF_7L                     000000FF
_EBRT3_ON_7L                      000000F7
_EBRT4_OFF_7L                     000000FF
_EBRT4_ON_7L                      000000EF
_EBRT5_OFF_7L                     000000FF
_EBRT5_ON_7L                      000000DF
_EBRT6_OFF_7L                     000000FF
_EBRT6_ON_7L                      000000BF
_EBRT7_OFF_7L                     000000FF
_EBRT7_ON_7L                      0000007F
_EBRTB_OFF_7H                     000000FF
_EBRTB_ON_7H                      000000BF
_ECCPMX_PORTE_3H                  000000FF
_ECCPMX_PORTH_3H                  000000FD
_FCMEN_OFF_1H                     000000BF
_FCMEN_ON_1H                      000000FF
_FOSC_EC1IO_1H                    000000FC
_FOSC_EC1_1H                      000000FD
_FOSC_EC2IO_1H                    000000FA
_FOSC_EC2_1H                      000000FB
_FOSC_EC3IO_1H                    000000F4
_FOSC_EC3_1H                      000000F5
MPASM 5.81                           LCD.ASM   11-14-2019  18:36:41         PAGE 53


SYMBOL TABLE
  LABEL                             VALUE 

_FOSC_HS1_1H                      000000F3
_FOSC_HS2_1H                      000000F2
_FOSC_INTIO1_1H                   000000F9
_FOSC_INTIO2_1H                   000000F8
_FOSC_LP_1H                       000000F0
_FOSC_RCIO_1H                     000000F7
_FOSC_RC_1H                       000000F6
_FOSC_XT_1H                       000000F1
_IDLOC0                           00200000
_IDLOC1                           00200001
_IDLOC2                           00200002
_IDLOC3                           00200003
_IDLOC4                           00200004
_IDLOC5                           00200005
_IDLOC6                           00200006
_IDLOC7                           00200007
_IESO_OFF_1H                      0000007F
_IESO_ON_1H                       000000FF
_INTOSCSEL_HIGH_1L                000000FF
_INTOSCSEL_LOW_1L                 000000FB
_MCLRE_OFF_3H                     0000007F
_MCLRE_ON_3H                      000000FF
_MSSPMSK_MSK5_3H                  000000F7
_MSSPMSK_MSK7_3H                  000000FF
_PLLCFG_OFF_1H                    000000EF
_PLLCFG_ON_1H                     000000FF
_PWRTEN_OFF_2L                    000000FF
_PWRTEN_ON_2L                     000000FE
_RETEN_OFF_1L                     000000FE
_RETEN_ON_1L                      000000FF
_RTCOSC_INTOSCREF_3L              000000FE
_RTCOSC_SOSCREF_3L                000000FF
_SOSCSEL_DIG_1L                   000000F7
_SOSCSEL_HIGH_1L                  000000FF
_SOSCSEL_LOW_1L                   000000EF
_STVREN_OFF_4L                    000000FE
_STVREN_ON_4L                     000000FF
_WAIT_OFF_3L                      000000FF
_WAIT_ON_3L                       0000007F
_WDTEN_NOSLP_2H                   000000FD
_WDTEN_OFF_2H                     000000FC
_WDTEN_ON_2H                      000000FE
_WDTEN_SWDTDIS_2H                 000000FF
_WDTPS_1024_2H                    000000AB
_WDTPS_1048576_2H                 000000FF
_WDTPS_128_2H                     0000009F
_WDTPS_131072_2H                  000000C7
_WDTPS_16384_2H                   000000BB
_WDTPS_16_2H                      00000093
_WDTPS_1_2H                       00000083
_WDTPS_2048_2H                    000000AF
_WDTPS_256_2H                     000000A3
_WDTPS_262144_2H                  000000CB
MPASM 5.81                           LCD.ASM   11-14-2019  18:36:41         PAGE 54


SYMBOL TABLE
  LABEL                             VALUE 

_WDTPS_2_2H                       00000087
_WDTPS_32768_2H                   000000BF
_WDTPS_32_2H                      00000097
_WDTPS_4096_2H                    000000B3
_WDTPS_4_2H                       0000008B
_WDTPS_512_2H                     000000A7
_WDTPS_524288_2H                  000000CF
_WDTPS_64_2H                      0000009B
_WDTPS_65536_2H                   000000C3
_WDTPS_8192_2H                    000000B7
_WDTPS_8_2H                       0000008F
_WRT0_OFF_6L                      000000FF
_WRT0_ON_6L                       000000FE
_WRT1_OFF_6L                      000000FF
_WRT1_ON_6L                       000000FD
_WRT2_OFF_6L                      000000FF
_WRT2_ON_6L                       000000FB
_WRT3_OFF_6L                      000000FF
_WRT3_ON_6L                       000000F7
_WRT4_OFF_6L                      000000FF
_WRT4_ON_6L                       000000EF
_WRT5_OFF_6L                      000000FF
_WRT5_ON_6L                       000000DF
_WRT6_OFF_6L                      000000FF
_WRT6_ON_6L                       000000BF
_WRT7_OFF_6L                      000000FF
_WRT7_ON_6L                       0000007F
_WRTB_OFF_6H                      000000FF
_WRTB_ON_6H                       000000BF
_WRTC_OFF_6H                      000000FF
_WRTC_ON_6H                       000000DF
_WRTD_OFF_6H                      000000FF
_WRTD_ON_6H                       0000007F
_XINST_OFF_1L                     000000BF
_XINST_ON_1L                      000000FF
__18F87K22                        00000001
_voffset                          .0
box_height                        .10
box_width                         .80
box_xoffset                       .100
box_xstart                        .10
box_yoffset                       .50
box_ystart                        .20
cly                               00000094
hsync_finetune                    .0
hsync_nondisp                     .26
hsync_pw                          .96
hsync_start                       .32
input_cmd                         00000000
input_data                        00000001
line_x1_h                         0000000C
line_x1_l                         00000010
line_x2_h                         0000000E
MPASM 5.81                           LCD.ASM   11-14-2019  18:36:41         PAGE 55


SYMBOL TABLE
  LABEL                             VALUE 

line_x2_l                         00000012
line_y1_h                         0000000D
line_y1_l                         00000011
line_y2_h                         0000000F
line_y2_l                         00000013
ly1                               0000009A
pixclk                            (RA8875_PCSR_PDATL | RA8875_PCSR_2CLK)
rect_colour                       0000000B
rect_x1_h                         00000003
rect_x1_l                         00000007
rect_x2_h                         00000005
rect_x2_l                         00000009
rect_y1_h                         00000004
rect_y1_l                         00000008
rect_y2_h                         00000006
rect_y2_l                         0000000A
scrl                              0000007A
scroll_speed                      .2
scroll_yend_h                     .1
scroll_yend_l                     .144
tmp1                              000000F4
tmp2                              000000FC
vsync_nondisp                     .32
vsync_pw                          .2
vsync_start                       .23

Errors   :     0
Warnings :     0 reported,     0 suppressed
Messages :     0 reported,     0 suppressed

